	.text
	.syntax unified
	.eabi_attribute	67, "2.09"	@ Tag_conformance
	.cpu	cortex-m23
	.eabi_attribute	6, 16	@ Tag_CPU_arch
	.eabi_attribute	7, 77	@ Tag_CPU_arch_profile
	.eabi_attribute	8, 0	@ Tag_ARM_ISA_use
	.eabi_attribute	9, 3	@ Tag_THUMB_ISA_use
	.eabi_attribute	34, 0	@ Tag_CPU_unaligned_access
	.eabi_attribute	17, 1	@ Tag_ABI_PCS_GOT_use
	.eabi_attribute	20, 2	@ Tag_ABI_FP_denormal
	.eabi_attribute	21, 0	@ Tag_ABI_FP_exceptions
	.eabi_attribute	23, 1	@ Tag_ABI_FP_number_model
	.eabi_attribute	24, 1	@ Tag_ABI_align_needed
	.eabi_attribute	25, 1	@ Tag_ABI_align_preserved
	.eabi_attribute	38, 1	@ Tag_ABI_FP_16bit_format
	.eabi_attribute	18, 4	@ Tag_ABI_PCS_wchar_t
	.eabi_attribute	26, 2	@ Tag_ABI_enum_size
	.eabi_attribute	14, 0	@ Tag_ABI_PCS_R9_use
	.file	"crypto_service.c"
	.file	1 "C:\\Keil_v5\\ARM\\ARMCLANG\\Bin\\..\\include" "stdint.h"
	.file	2 "E:\\KHU-TEE\\\354\236\245\353\271\204\\Nuvoton\\sample\\M2351BSP-master\\SampleCode\\TrustZone\\KHU-TEE2\\Secure\\KEIL" "crypto_service.c"
	.file	3 "E:\\KHU-TEE\\\354\236\245\353\271\204\\Nuvoton\\sample\\M2351BSP-master\\SampleCode\\TrustZone\\KHU-TEE2\\Secure\\KEIL" "../../../../../Library/Device/Nuvoton/M2351/Include\\M2351.h"
	.file	4 "E:\\KHU-TEE\\\354\236\245\353\271\204\\Nuvoton\\sample\\M2351BSP-master\\SampleCode\\TrustZone\\KHU-TEE2\\Secure\\KEIL" "../../../../../Library/StdDriver/inc\\crypto.h"
	.file	5 "E:\\KHU-TEE\\\354\236\245\353\271\204\\Nuvoton\\sample\\M2351BSP-master\\SampleCode\\TrustZone\\KHU-TEE2\\Secure\\KEIL" "../../../../../Library/Device/Nuvoton/M2351/Include/crpt_reg.h"
	.file	6 "E:\\KHU-TEE\\\354\236\245\353\271\204\\Nuvoton\\sample\\M2351BSP-master\\SampleCode\\TrustZone\\KHU-TEE2\\Secure\\KEIL" "../../../../../Library/CMSIS/Include\\core_armv8mbl.h"
	.section	.text.calc_size,"ax",%progbits
	.hidden	calc_size               @ -- Begin function calc_size
	.globl	calc_size
	.p2align	2
	.type	calc_size,%function
	.code	16                      @ @calc_size
	.thumb_func
calc_size:
.Lfunc_begin0:
	.loc	2 20 0                  @ crypto_service.c:20:0
	.fnstart
	.cfi_sections .debug_frame
	.cfi_startproc
@ %bb.0:
	.pad	#16
	sub	sp, #16
	.cfi_def_cfa_offset 16
	mov	r1, r0
	str	r0, [sp, #12]
.Ltmp0:
	.loc	2 23 11 prologue_end    @ crypto_service.c:23:11
	ldr	r0, [sp, #12]
	.loc	2 23 3 is_stmt 0        @ crypto_service.c:23:3
	cmp	r0, #100
	str	r1, [sp, #4]            @ 4-byte Spill
	str	r0, [sp]                @ 4-byte Spill
	beq	.LBB0_13
	b	.LBB0_1
.LBB0_1:
	ldr	r0, [sp]                @ 4-byte Reload
	cmp	r0, #101
	beq	.LBB0_14
	b	.LBB0_2
.LBB0_2:
	ldr	r0, [sp]                @ 4-byte Reload
	cmp	r0, #102
	beq	.LBB0_15
	b	.LBB0_3
.LBB0_3:
	ldr	r0, [sp]                @ 4-byte Reload
	cmp	r0, #103
	beq	.LBB0_16
	b	.LBB0_4
.LBB0_4:
	ldr	r0, [sp]                @ 4-byte Reload
	cmp	r0, #104
	beq	.LBB0_17
	b	.LBB0_5
.LBB0_5:
	ldr	r0, [sp]                @ 4-byte Reload
	cmp	r0, #200
	beq	.LBB0_18
	b	.LBB0_6
.LBB0_6:
	ldr	r0, [sp]                @ 4-byte Reload
	cmp	r0, #201
	beq	.LBB0_19
	b	.LBB0_7
.LBB0_7:
	ldr	r0, [sp]                @ 4-byte Reload
	cmp	r0, #202
	beq	.LBB0_20
	b	.LBB0_8
.LBB0_8:
	.loc	2 0 3                   @ crypto_service.c:0:3
	movw	r0, #300
	.loc	2 23 3                  @ crypto_service.c:23:3
	ldr	r1, [sp]                @ 4-byte Reload
	cmp	r1, r0
	beq	.LBB0_21
	b	.LBB0_9
.LBB0_9:
	.loc	2 0 3                   @ crypto_service.c:0:3
	movw	r0, #301
	.loc	2 23 3                  @ crypto_service.c:23:3
	ldr	r1, [sp]                @ 4-byte Reload
	cmp	r1, r0
	beq	.LBB0_22
	b	.LBB0_10
.LBB0_10:
	.loc	2 0 3                   @ crypto_service.c:0:3
	movw	r0, #302
	.loc	2 23 3                  @ crypto_service.c:23:3
	ldr	r1, [sp]                @ 4-byte Reload
	cmp	r1, r0
	beq	.LBB0_23
	b	.LBB0_11
.LBB0_11:
	.loc	2 0 3                   @ crypto_service.c:0:3
	movw	r0, #303
	.loc	2 23 3                  @ crypto_service.c:23:3
	ldr	r1, [sp]                @ 4-byte Reload
	cmp	r1, r0
	beq	.LBB0_24
	b	.LBB0_12
.LBB0_12:
	.loc	2 0 3                   @ crypto_service.c:0:3
	movw	r0, #304
	.loc	2 23 3                  @ crypto_service.c:23:3
	ldr	r1, [sp]                @ 4-byte Reload
	cmp	r1, r0
	beq	.LBB0_25
	b	.LBB0_26
.LBB0_13:
	.loc	2 0 3                   @ crypto_service.c:0:3
	movs	r0, #20
.Ltmp1:
	.loc	2 25 10 is_stmt 1       @ crypto_service.c:25:10
	str	r0, [sp, #8]
	.loc	2 26 5                  @ crypto_service.c:26:5
	b	.LBB0_26
.LBB0_14:
	.loc	2 0 5 is_stmt 0         @ crypto_service.c:0:5
	movs	r0, #28
	.loc	2 28 10 is_stmt 1       @ crypto_service.c:28:10
	str	r0, [sp, #8]
	.loc	2 29 5                  @ crypto_service.c:29:5
	b	.LBB0_26
.LBB0_15:
	.loc	2 0 5 is_stmt 0         @ crypto_service.c:0:5
	movs	r0, #32
	.loc	2 31 10 is_stmt 1       @ crypto_service.c:31:10
	str	r0, [sp, #8]
	.loc	2 32 5                  @ crypto_service.c:32:5
	b	.LBB0_26
.LBB0_16:
	.loc	2 0 5 is_stmt 0         @ crypto_service.c:0:5
	movs	r0, #48
	.loc	2 34 10 is_stmt 1       @ crypto_service.c:34:10
	str	r0, [sp, #8]
	.loc	2 35 5                  @ crypto_service.c:35:5
	b	.LBB0_26
.LBB0_17:
	.loc	2 0 5 is_stmt 0         @ crypto_service.c:0:5
	movs	r0, #64
	.loc	2 37 10 is_stmt 1       @ crypto_service.c:37:10
	str	r0, [sp, #8]
	.loc	2 38 5                  @ crypto_service.c:38:5
	b	.LBB0_26
.LBB0_18:
	.loc	2 0 5 is_stmt 0         @ crypto_service.c:0:5
	movs	r0, #16
	.loc	2 40 10 is_stmt 1       @ crypto_service.c:40:10
	str	r0, [sp, #8]
	.loc	2 41 5                  @ crypto_service.c:41:5
	b	.LBB0_26
.LBB0_19:
	.loc	2 0 5 is_stmt 0         @ crypto_service.c:0:5
	movs	r0, #24
	.loc	2 43 10 is_stmt 1       @ crypto_service.c:43:10
	str	r0, [sp, #8]
	.loc	2 44 5                  @ crypto_service.c:44:5
	b	.LBB0_26
.LBB0_20:
	.loc	2 0 5 is_stmt 0         @ crypto_service.c:0:5
	movs	r0, #32
	.loc	2 46 10 is_stmt 1       @ crypto_service.c:46:10
	str	r0, [sp, #8]
	.loc	2 47 5                  @ crypto_service.c:47:5
	b	.LBB0_26
.LBB0_21:
	.loc	2 0 5 is_stmt 0         @ crypto_service.c:0:5
	movs	r0, #192
	.loc	2 49 10 is_stmt 1       @ crypto_service.c:49:10
	str	r0, [sp, #8]
	.loc	2 50 5                  @ crypto_service.c:50:5
	b	.LBB0_26
.LBB0_22:
	.loc	2 0 5 is_stmt 0         @ crypto_service.c:0:5
	movs	r0, #224
	.loc	2 52 10 is_stmt 1       @ crypto_service.c:52:10
	str	r0, [sp, #8]
	.loc	2 53 5                  @ crypto_service.c:53:5
	b	.LBB0_26
.LBB0_23:
	.loc	2 0 5 is_stmt 0         @ crypto_service.c:0:5
	movw	r0, #256
	.loc	2 55 10 is_stmt 1       @ crypto_service.c:55:10
	str	r0, [sp, #8]
	.loc	2 56 5                  @ crypto_service.c:56:5
	b	.LBB0_26
.LBB0_24:
	.loc	2 0 5 is_stmt 0         @ crypto_service.c:0:5
	movw	r0, #384
	.loc	2 58 10 is_stmt 1       @ crypto_service.c:58:10
	str	r0, [sp, #8]
	.loc	2 59 5                  @ crypto_service.c:59:5
	b	.LBB0_26
.LBB0_25:
	.loc	2 0 5 is_stmt 0         @ crypto_service.c:0:5
	ldr	r0, __arm_cp.0_0
	.loc	2 61 10 is_stmt 1       @ crypto_service.c:61:10
	str	r0, [sp, #8]
	.loc	2 62 5                  @ crypto_service.c:62:5
	b	.LBB0_26
.Ltmp2:
.LBB0_26:
	.loc	2 65 10                 @ crypto_service.c:65:10
	ldr	r0, [sp, #8]
	.loc	2 65 3 is_stmt 0        @ crypto_service.c:65:3
	add	sp, #16
	bx	lr
.Ltmp3:
	.p2align	2
@ %bb.27:
	.loc	2 0 3                   @ crypto_service.c:0:3
__arm_cp.0_0:
	.long	521                     @ 0x209
.Lcpi_end0:
	.size	__arm_cp.0_0, .Lcpi_end0-__arm_cp.0_0
.Lfunc_end0:
	.size	calc_size, .Lfunc_end0-calc_size
	.cfi_endproc
	.cantunwind
	.fnend
                                        @ -- End function
	.section	.text.Byte2Char,"ax",%progbits
	.hidden	Byte2Char               @ -- Begin function Byte2Char
	.globl	Byte2Char
	.p2align	1
	.type	Byte2Char,%function
	.code	16                      @ @Byte2Char
	.thumb_func
Byte2Char:
.Lfunc_begin1:
	.loc	2 69 0 is_stmt 1        @ crypto_service.c:69:0
	.fnstart
	.cfi_startproc
@ %bb.0:
	.pad	#12
	sub	sp, #12
	.cfi_def_cfa_offset 12
	mov	r1, r0
	add	r2, sp, #4
	strb	r0, [r2]
.Ltmp4:
	.loc	2 70 8 prologue_end     @ crypto_service.c:70:8
	ldrb	r0, [r2]
.Ltmp5:
	.loc	2 70 8 is_stmt 0        @ crypto_service.c:70:8
	cmp	r0, #9
	str	r1, [sp]                @ 4-byte Spill
	bgt	.LBB1_2
	b	.LBB1_1
.LBB1_1:
.Ltmp6:
	.loc	2 71 17 is_stmt 1       @ crypto_service.c:71:17
	ldr	r0, [sp, #4]
	.loc	2 71 19 is_stmt 0       @ crypto_service.c:71:19
	adds	r0, #48
	add	r1, sp, #8
	.loc	2 71 9                  @ crypto_service.c:71:9
	strb	r0, [r1]
	b	.LBB1_5
.Ltmp7:
.LBB1_2:
	.loc	2 0 9                   @ crypto_service.c:0:9
	add	r0, sp, #4
.Ltmp8:
	.loc	2 72 8 is_stmt 1        @ crypto_service.c:72:8
	ldrb	r0, [r0]
.Ltmp9:
	.loc	2 72 8 is_stmt 0        @ crypto_service.c:72:8
	cmp	r0, #15
	bgt	.LBB1_4
	b	.LBB1_3
.LBB1_3:
.Ltmp10:
	.loc	2 73 17 is_stmt 1       @ crypto_service.c:73:17
	ldr	r0, [sp, #4]
	.loc	2 73 24 is_stmt 0       @ crypto_service.c:73:24
	adds	r0, #87
	add	r1, sp, #8
	.loc	2 73 9                  @ crypto_service.c:73:9
	strb	r0, [r1]
	b	.LBB1_5
.Ltmp11:
.LBB1_4:
	.loc	2 0 9                   @ crypto_service.c:0:9
	add	r0, sp, #8
	movs	r1, #0
	.loc	2 75 5 is_stmt 1        @ crypto_service.c:75:5
	strb	r1, [r0]
	b	.LBB1_5
.LBB1_5:
	.loc	2 0 5 is_stmt 0         @ crypto_service.c:0:5
	add	r0, sp, #8
	.loc	2 76 1 is_stmt 1        @ crypto_service.c:76:1
	ldrb	r0, [r0]
	add	sp, #12
	bx	lr
.Ltmp12:
.Lfunc_end1:
	.size	Byte2Char, .Lfunc_end1-Byte2Char
	.cfi_endproc
	.cantunwind
	.fnend
                                        @ -- End function
	.section	.text.hw_acc_disable,"ax",%progbits
	.hidden	hw_acc_disable          @ -- Begin function hw_acc_disable
	.globl	hw_acc_disable
	.p2align	2
	.type	hw_acc_disable,%function
	.code	16                      @ @hw_acc_disable
	.thumb_func
hw_acc_disable:
.Lfunc_begin2:
	.loc	2 78 0                  @ crypto_service.c:78:0
	.fnstart
	.cfi_startproc
@ %bb.0:
	.save	{r7, lr}
	push	{r7, lr}
	.cfi_def_cfa_offset 8
	.cfi_offset lr, -4
	.cfi_offset r7, -8
	ldr	r0, __arm_cp.2_0
.Ltmp13:
	.loc	2 79 3 prologue_end     @ crypto_service.c:79:3
	ldr	r1, [r0]
	movs	r2, #3
	lsls	r3, r2, #24
	bics	r1, r3
	str	r1, [r0]
	.loc	2 80 3                  @ crypto_service.c:80:3
	ldr	r1, [r0]
	bics	r1, r2
	str	r1, [r0]
	.loc	2 81 3                  @ crypto_service.c:81:3
	ldr	r1, [r0]
	lsls	r2, r2, #22
	bics	r1, r2
	str	r1, [r0]
	movs	r0, #71
	.loc	2 82 3                  @ crypto_service.c:82:3
	bl	__NVIC_DisableIRQ
	.loc	2 83 1                  @ crypto_service.c:83:1
	pop	{r7, pc}
.Ltmp14:
	.p2align	2
@ %bb.1:
	.loc	2 0 1 is_stmt 0         @ crypto_service.c:0:1
__arm_cp.2_0:
	.long	1073946624              @ 0x40032000
.Lcpi_end1:
	.size	__arm_cp.2_0, .Lcpi_end1-__arm_cp.2_0
.Lfunc_end2:
	.size	hw_acc_disable, .Lfunc_end2-hw_acc_disable
	.cfi_endproc
	.cantunwind
	.fnend
                                        @ -- End function
	.section	.text.__NVIC_DisableIRQ,"ax",%progbits
	.p2align	2               @ -- Begin function __NVIC_DisableIRQ
	.type	__NVIC_DisableIRQ,%function
	.code	16                      @ @__NVIC_DisableIRQ
	.thumb_func
__NVIC_DisableIRQ:
.Lfunc_begin3:
	.loc	6 1312 0 is_stmt 1      @ ../../../../../Library/CMSIS/Include\core_armv8mbl.h:1312:0
	.fnstart
	.cfi_startproc
@ %bb.0:
	.pad	#8
	sub	sp, #8
	.cfi_def_cfa_offset 8
	mov	r1, r0
	str	r0, [sp, #4]
.Ltmp15:
	.loc	6 1313 17 prologue_end  @ ../../../../../Library/CMSIS/Include\core_armv8mbl.h:1313:17
	ldr	r0, [sp, #4]
.Ltmp16:
	.loc	6 1313 7 is_stmt 0      @ ../../../../../Library/CMSIS/Include\core_armv8mbl.h:1313:7
	cmp	r0, #0
	str	r1, [sp]                @ 4-byte Spill
	blt	.LBB3_2
	b	.LBB3_1
.LBB3_1:
.Ltmp17:
	.loc	6 1315 93 is_stmt 1     @ ../../../../../Library/CMSIS/Include\core_armv8mbl.h:1315:93
	ldr	r0, [sp, #4]
	movs	r1, #31
	.loc	6 1315 99 is_stmt 0     @ ../../../../../Library/CMSIS/Include\core_armv8mbl.h:1315:99
	mov	r2, r0
	ands	r2, r1
	movs	r1, #1
	.loc	6 1315 69               @ ../../../../../Library/CMSIS/Include\core_armv8mbl.h:1315:69
	lsls	r1, r2
	.loc	6 1315 43               @ ../../../../../Library/CMSIS/Include\core_armv8mbl.h:1315:43
	lsrs	r0, r0, #5
	lsls	r0, r0, #2
	ldr	r2, __arm_cp.3_0
	.loc	6 1315 52               @ ../../../../../Library/CMSIS/Include\core_armv8mbl.h:1315:52
	str	r1, [r0, r2]
	.loc	6 1316 5 is_stmt 1      @ ../../../../../Library/CMSIS/Include\core_armv8mbl.h:1316:5
	dsb	sy
	.loc	6 1317 5                @ ../../../../../Library/CMSIS/Include\core_armv8mbl.h:1317:5
	isb	sy
	.loc	6 1318 3                @ ../../../../../Library/CMSIS/Include\core_armv8mbl.h:1318:3
	b	.LBB3_2
.Ltmp18:
.LBB3_2:
	.loc	6 1319 1                @ ../../../../../Library/CMSIS/Include\core_armv8mbl.h:1319:1
	add	sp, #8
	bx	lr
.Ltmp19:
	.p2align	2
@ %bb.3:
	.loc	6 0 1 is_stmt 0         @ ../../../../../Library/CMSIS/Include\core_armv8mbl.h:0:1
__arm_cp.3_0:
	.long	3758154112              @ 0xe000e180
.Lcpi_end2:
	.size	__arm_cp.3_0, .Lcpi_end2-__arm_cp.3_0
.Lfunc_end3:
	.size	__NVIC_DisableIRQ, .Lfunc_end3-__NVIC_DisableIRQ
	.cfi_endproc
	.cantunwind
	.fnend
                                        @ -- End function
	.section	.text.crypto_hash,"ax",%progbits
	.hidden	crypto_hash             @ -- Begin function crypto_hash
	.globl	crypto_hash
	.p2align	2
	.type	crypto_hash,%function
	.code	16                      @ @crypto_hash
	.thumb_func
crypto_hash:
.Lfunc_begin4:
	.loc	2 85 0 is_stmt 1        @ crypto_service.c:85:0
	.fnstart
	.cfi_startproc
@ %bb.0:
	.save	{r4, r5, r6, r7, lr}
	push	{r4, r5, r6, r7, lr}
	.cfi_def_cfa_offset 20
	.cfi_offset lr, -4
	.cfi_offset r7, -8
	.cfi_offset r6, -12
	.cfi_offset r5, -16
	.cfi_offset r4, -20
	.setfp	r7, sp, #12
	add	r7, sp, #12
	.cfi_def_cfa r7, 8
	.pad	#76
	sub	sp, #76
	mov	r6, sp
	adds	r4, r6, #7
	adds	r4, #41
	mov	r5, r3
	str	r0, [r6, #44]           @ 4-byte Spill
	mov	r0, r2
	str	r0, [r6, #40]           @ 4-byte Spill
	mov	r0, r1
	str	r0, [r6, #36]           @ 4-byte Spill
	ldr	r0, [r6, #44]           @ 4-byte Reload
	str	r0, [r6, #32]           @ 4-byte Spill
	ldr	r0, [r6, #44]           @ 4-byte Reload
	str	r0, [r4, #24]
	str	r1, [r4, #20]
	str	r2, [r4, #16]
	str	r3, [r4, #12]
.Ltmp20:
	.loc	2 86 3 prologue_end     @ crypto_service.c:86:3
	str	r4, [r6, #28]           @ 4-byte Spill
	str	r5, [r6, #24]           @ 4-byte Spill
	bl	hw_acc_disable
	.loc	2 88 19                 @ crypto_service.c:88:19
	ldr	r0, [r6, #28]           @ 4-byte Reload
	ldr	r1, [r0, #12]
	.loc	2 88 3 is_stmt 0        @ crypto_service.c:88:3
	mov	r2, sp
	str	r2, [r0, #8]
	lsls	r2, r1, #2
	adds	r2, r2, #7
	movs	r3, #7
	bics	r2, r3
	mov	r3, sp
	subs	r2, r3, r2
.Ltmp21:
	@DEBUG_VALUE: crypto_hash:output <- [$r2+0]
	mov	sp, r2
	str	r1, [r0, #4]
	movs	r0, #71
	.loc	2 90 3 is_stmt 1        @ crypto_service.c:90:3
	str	r2, [r6, #20]           @ 4-byte Spill
.Ltmp22:
	@DEBUG_VALUE: crypto_hash:output <- [DW_OP_plus_uconst 20, DW_OP_deref] [$r6+0]
	bl	__NVIC_EnableIRQ
	ldr	r0, __arm_cp.4_0
	.loc	2 91 3                  @ crypto_service.c:91:3
	ldr	r1, [r0]
	movs	r2, #3
	lsls	r2, r2, #24
	orrs	r1, r2
	str	r1, [r0]
	.loc	2 93 11                 @ crypto_service.c:93:11
	ldr	r0, [r6, #28]           @ 4-byte Reload
	ldr	r1, [r0, #16]
	.loc	2 93 3 is_stmt 0        @ crypto_service.c:93:3
	subs	r1, #100
	cmp	r1, #4
	str	r1, [r6, #16]           @ 4-byte Spill
	bhi	.LBB4_8
.Ltmp23:
@ %bb.1:
	@DEBUG_VALUE: crypto_hash:output <- [DW_OP_plus_uconst 20, DW_OP_deref] [$r6+0]
	.loc	2 0 3                   @ crypto_service.c:0:3
	ldr	r0, [r6, #16]           @ 4-byte Reload
	lsls	r1, r0, #2
	adr	r2, .LJTI4_0
	adds	r1, r2, r1
	mov	pc, r1
.Ltmp24:
@ %bb.2:
	.p2align	2
.LJTI4_0:
	b.w	.LBB4_3
	b.w	.LBB4_4
	b.w	.LBB4_5
	b.w	.LBB4_6
	b.w	.LBB4_7
.LBB4_3:
.Ltmp25:
	@DEBUG_VALUE: crypto_hash:output <- [DW_OP_plus_uconst 20, DW_OP_deref] [$r6+0]
	.loc	2 95 6 is_stmt 1        @ crypto_service.c:95:6
	ldr	r0, __arm_cp.4_1
	movs	r2, #3
	movs	r1, #0
	str	r1, [r6, #12]           @ 4-byte Spill
	ldr	r3, [r6, #12]           @ 4-byte Reload
	bl	XSHA_Open
	.loc	2 96 6                  @ crypto_service.c:96:6
	b	.LBB4_8
.Ltmp26:
.LBB4_4:
	@DEBUG_VALUE: crypto_hash:output <- [DW_OP_plus_uconst 20, DW_OP_deref] [$r6+0]
	.loc	2 98 6                  @ crypto_service.c:98:6
	ldr	r0, __arm_cp.4_1
	movs	r1, #5
	movs	r2, #3
	movs	r3, #0
	bl	XSHA_Open
	.loc	2 99 6                  @ crypto_service.c:99:6
	b	.LBB4_8
.Ltmp27:
.LBB4_5:
	@DEBUG_VALUE: crypto_hash:output <- [DW_OP_plus_uconst 20, DW_OP_deref] [$r6+0]
	.loc	2 101 6                 @ crypto_service.c:101:6
	ldr	r0, __arm_cp.4_1
	movs	r1, #4
	movs	r2, #3
	movs	r3, #0
	bl	XSHA_Open
	.loc	2 102 6                 @ crypto_service.c:102:6
	b	.LBB4_8
.Ltmp28:
.LBB4_6:
	@DEBUG_VALUE: crypto_hash:output <- [DW_OP_plus_uconst 20, DW_OP_deref] [$r6+0]
	.loc	2 104 6                 @ crypto_service.c:104:6
	ldr	r0, __arm_cp.4_1
	movs	r1, #7
	movs	r2, #3
	movs	r3, #0
	bl	XSHA_Open
	.loc	2 105 6                 @ crypto_service.c:105:6
	b	.LBB4_8
.Ltmp29:
.LBB4_7:
	@DEBUG_VALUE: crypto_hash:output <- [DW_OP_plus_uconst 20, DW_OP_deref] [$r6+0]
	.loc	2 107 6                 @ crypto_service.c:107:6
	ldr	r0, __arm_cp.4_1
	movs	r1, #6
	movs	r2, #3
	movs	r3, #0
	bl	XSHA_Open
	.loc	2 108 6                 @ crypto_service.c:108:6
	b	.LBB4_8
.Ltmp30:
.LBB4_8:
	@DEBUG_VALUE: crypto_hash:output <- [DW_OP_plus_uconst 20, DW_OP_deref] [$r6+0]
	.loc	2 111 41                @ crypto_service.c:111:41
	ldr	r0, [r6, #28]           @ 4-byte Reload
	ldr	r1, [r0, #24]
	.loc	2 111 51 is_stmt 0      @ crypto_service.c:111:51
	mov	r0, r1
	str	r1, [r6, #8]            @ 4-byte Spill
	bl	strlen
	.loc	2 111 3                 @ crypto_service.c:111:3
	ldr	r1, __arm_cp.4_1
	str	r0, [r6, #4]            @ 4-byte Spill
	mov	r0, r1
	ldr	r2, [r6, #8]            @ 4-byte Reload
	str	r1, [r6]                @ 4-byte Spill
	mov	r1, r2
	ldr	r2, [r6, #4]            @ 4-byte Reload
	bl	XSHA_SetDMATransfer
	movs	r1, #5
	.loc	2 112 3 is_stmt 1       @ crypto_service.c:112:3
	ldr	r0, [r6]                @ 4-byte Reload
	bl	XSHA_Start
	.loc	2 114 19                @ crypto_service.c:114:19
	ldr	r0, __arm_cp.4_2
	movs	r1, #0
	str	r1, [r0]
	.loc	2 115 3                 @ crypto_service.c:115:3
	ldr	r0, [r6]                @ 4-byte Reload
	ldr	r1, [r6, #20]           @ 4-byte Reload
	bl	XSHA_Read
	.loc	2 116 3                 @ crypto_service.c:116:3
	b	.LBB4_9
.Ltmp31:
.LBB4_9:                                @ =>This Inner Loop Header: Depth=1
	@DEBUG_VALUE: crypto_hash:output <- [DW_OP_plus_uconst 20, DW_OP_deref] [$r6+0]
	.loc	2 116 9 is_stmt 0       @ crypto_service.c:116:9
	ldr	r0, __arm_cp.4_2
	ldr	r0, [r0]
	.loc	2 116 3                 @ crypto_service.c:116:3
	cmp	r0, #0
	bne	.LBB4_11
	b	.LBB4_10
.Ltmp32:
.LBB4_10:                               @   in Loop: Header=BB4_9 Depth=1
	@DEBUG_VALUE: crypto_hash:output <- [DW_OP_plus_uconst 20, DW_OP_deref] [$r6+0]
	b	.LBB4_9
.Ltmp33:
.LBB4_11:
	@DEBUG_VALUE: crypto_hash:output <- [DW_OP_plus_uconst 20, DW_OP_deref] [$r6+0]
	.loc	2 0 3                   @ crypto_service.c:0:3
	movs	r0, #0
.Ltmp34:
	.loc	2 118 12 is_stmt 1      @ crypto_service.c:118:12
	ldr	r1, [r6, #28]           @ 4-byte Reload
	str	r0, [r1]
	.loc	2 118 8 is_stmt 0       @ crypto_service.c:118:8
	b	.LBB4_12
.Ltmp35:
.LBB4_12:                               @ =>This Inner Loop Header: Depth=1
	@DEBUG_VALUE: crypto_hash:output <- [DW_OP_plus_uconst 20, DW_OP_deref] [$r6+0]
	.loc	2 118 19                @ crypto_service.c:118:19
	ldr	r0, [r6, #28]           @ 4-byte Reload
	ldr	r1, [r0]
	.loc	2 118 23                @ crypto_service.c:118:23
	ldr	r2, [r0, #12]
.Ltmp36:
	.loc	2 118 3                 @ crypto_service.c:118:3
	cmp	r1, r2
	bge	.LBB4_15
	b	.LBB4_13
.Ltmp37:
.LBB4_13:                               @   in Loop: Header=BB4_12 Depth=1
	@DEBUG_VALUE: crypto_hash:output <- [DW_OP_plus_uconst 20, DW_OP_deref] [$r6+0]
	.loc	2 119 24 is_stmt 1      @ crypto_service.c:119:24
	ldr	r0, [r6, #28]           @ 4-byte Reload
	ldr	r1, [r0]
	.loc	2 119 17 is_stmt 0      @ crypto_service.c:119:17
	lsls	r1, r1, #2
	ldr	r2, [r6, #20]           @ 4-byte Reload
	ldr	r3, [r2, r1]
	.loc	2 119 5                 @ crypto_service.c:119:5
	ldr	r4, [r0, #20]
	.loc	2 119 15                @ crypto_service.c:119:15
	str	r3, [r4, r1]
	.loc	2 120 3 is_stmt 1       @ crypto_service.c:120:3
	b	.LBB4_14
.Ltmp38:
.LBB4_14:                               @   in Loop: Header=BB4_12 Depth=1
	@DEBUG_VALUE: crypto_hash:output <- [DW_OP_plus_uconst 20, DW_OP_deref] [$r6+0]
	.loc	2 118 30                @ crypto_service.c:118:30
	ldr	r0, [r6, #28]           @ 4-byte Reload
	ldr	r1, [r0]
	adds	r1, r1, #1
	str	r1, [r0]
	.loc	2 118 3 is_stmt 0       @ crypto_service.c:118:3
	b	.LBB4_12
.Ltmp39:
.LBB4_15:
	@DEBUG_VALUE: crypto_hash:output <- [DW_OP_plus_uconst 20, DW_OP_deref] [$r6+0]
	.loc	2 121 1 is_stmt 1       @ crypto_service.c:121:1
	ldr	r0, [r6, #28]           @ 4-byte Reload
	ldr	r1, [r0, #8]
	mov	sp, r1
	subs	r4, r7, #7
	subs	r4, #5
	mov	sp, r4
	pop	{r4, r5, r6, r7, pc}
.Ltmp40:
	.p2align	2
@ %bb.16:
	.loc	2 0 1 is_stmt 0         @ crypto_service.c:0:1
__arm_cp.4_0:
	.long	1073946624              @ 0x40032000
.Lcpi_end3:
	.size	__arm_cp.4_0, .Lcpi_end3-__arm_cp.4_0
__arm_cp.4_1:
	.long	g_xcrpt
.Lcpi_end4:
	.size	__arm_cp.4_1, .Lcpi_end4-__arm_cp.4_1
__arm_cp.4_2:
	.long	g_u32IsSHA_done
.Lcpi_end5:
	.size	__arm_cp.4_2, .Lcpi_end5-__arm_cp.4_2
.Lfunc_end4:
	.size	crypto_hash, .Lfunc_end4-crypto_hash
	.cfi_endproc
	.cantunwind
	.fnend
                                        @ -- End function
	.section	.text.__NVIC_EnableIRQ,"ax",%progbits
	.p2align	2               @ -- Begin function __NVIC_EnableIRQ
	.type	__NVIC_EnableIRQ,%function
	.code	16                      @ @__NVIC_EnableIRQ
	.thumb_func
__NVIC_EnableIRQ:
.Lfunc_begin5:
	.loc	6 1276 0 is_stmt 1      @ ../../../../../Library/CMSIS/Include\core_armv8mbl.h:1276:0
	.fnstart
	.cfi_startproc
@ %bb.0:
	.pad	#8
	sub	sp, #8
	.cfi_def_cfa_offset 8
	mov	r1, r0
	str	r0, [sp, #4]
.Ltmp41:
	.loc	6 1277 17 prologue_end  @ ../../../../../Library/CMSIS/Include\core_armv8mbl.h:1277:17
	ldr	r0, [sp, #4]
.Ltmp42:
	.loc	6 1277 7 is_stmt 0      @ ../../../../../Library/CMSIS/Include\core_armv8mbl.h:1277:7
	cmp	r0, #0
	str	r1, [sp]                @ 4-byte Spill
	blt	.LBB5_2
	b	.LBB5_1
.LBB5_1:
.Ltmp43:
	.loc	6 1279 93 is_stmt 1     @ ../../../../../Library/CMSIS/Include\core_armv8mbl.h:1279:93
	ldr	r0, [sp, #4]
	movs	r1, #31
	.loc	6 1279 99 is_stmt 0     @ ../../../../../Library/CMSIS/Include\core_armv8mbl.h:1279:99
	mov	r2, r0
	ands	r2, r1
	movs	r1, #1
	.loc	6 1279 69               @ ../../../../../Library/CMSIS/Include\core_armv8mbl.h:1279:69
	lsls	r1, r2
	.loc	6 1279 43               @ ../../../../../Library/CMSIS/Include\core_armv8mbl.h:1279:43
	lsrs	r0, r0, #5
	lsls	r0, r0, #2
	ldr	r2, __arm_cp.5_0
	.loc	6 1279 52               @ ../../../../../Library/CMSIS/Include\core_armv8mbl.h:1279:52
	str	r1, [r0, r2]
	.loc	6 1280 3 is_stmt 1      @ ../../../../../Library/CMSIS/Include\core_armv8mbl.h:1280:3
	b	.LBB5_2
.Ltmp44:
.LBB5_2:
	.loc	6 1281 1                @ ../../../../../Library/CMSIS/Include\core_armv8mbl.h:1281:1
	add	sp, #8
	bx	lr
.Ltmp45:
	.p2align	2
@ %bb.3:
	.loc	6 0 1 is_stmt 0         @ ../../../../../Library/CMSIS/Include\core_armv8mbl.h:0:1
__arm_cp.5_0:
	.long	3758153984              @ 0xe000e100
.Lcpi_end6:
	.size	__arm_cp.5_0, .Lcpi_end6-__arm_cp.5_0
.Lfunc_end5:
	.size	__NVIC_EnableIRQ, .Lfunc_end5-__NVIC_EnableIRQ
	.cfi_endproc
	.cantunwind
	.fnend
                                        @ -- End function
	.section	.text.crypto_symmetric,"ax",%progbits
	.hidden	crypto_symmetric        @ -- Begin function crypto_symmetric
	.globl	crypto_symmetric
	.p2align	2
	.type	crypto_symmetric,%function
	.code	16                      @ @crypto_symmetric
	.thumb_func
crypto_symmetric:
.Lfunc_begin6:
	.loc	2 123 0 is_stmt 1       @ crypto_service.c:123:0
	.fnstart
	.cfi_startproc
@ %bb.0:
	.save	{r4, r5, r6, r7, lr}
	push	{r4, r5, r6, r7, lr}
	.cfi_def_cfa_offset 20
	.cfi_offset lr, -4
	.cfi_offset r7, -8
	.cfi_offset r6, -12
	.cfi_offset r5, -16
	.cfi_offset r4, -20
	.pad	#68
	sub	sp, #68
	.cfi_def_cfa_offset 88
	ldr	r4, [sp, #88]
	mov	r5, r3
	mov	r6, r2
	mov	r7, r1
	str	r0, [sp, #44]           @ 4-byte Spill
	str	r0, [sp, #40]           @ 4-byte Spill
	ldr	r0, [sp, #44]           @ 4-byte Reload
	str	r0, [sp, #64]
	str	r1, [sp, #60]
	str	r2, [sp, #56]
	str	r3, [sp, #52]
.Ltmp46:
	.loc	2 124 3 prologue_end    @ crypto_service.c:124:3
	str	r4, [sp, #36]           @ 4-byte Spill
	str	r5, [sp, #32]           @ 4-byte Spill
	str	r6, [sp, #28]           @ 4-byte Spill
	str	r7, [sp, #24]           @ 4-byte Spill
	bl	hw_acc_disable
	movs	r0, #71
	.loc	2 126 3                 @ crypto_service.c:126:3
	bl	__NVIC_EnableIRQ
	ldr	r0, __arm_cp.6_0
	.loc	2 127 5                 @ crypto_service.c:127:5
	ldr	r1, [r0]
	movs	r2, #3
	orrs	r1, r2
	str	r1, [r0]
	.loc	2 130 11                @ crypto_service.c:130:11
	ldr	r0, [sp, #52]
	.loc	2 130 3 is_stmt 0       @ crypto_service.c:130:3
	cmp	r0, #200
	str	r0, [sp, #20]           @ 4-byte Spill
	beq	.LBB6_3
	b	.LBB6_1
.LBB6_1:
	ldr	r0, [sp, #20]           @ 4-byte Reload
	cmp	r0, #201
	beq	.LBB6_4
	b	.LBB6_2
.LBB6_2:
	ldr	r0, [sp, #20]           @ 4-byte Reload
	cmp	r0, #202
	beq	.LBB6_5
	b	.LBB6_6
.LBB6_3:
	.loc	2 0 3                   @ crypto_service.c:0:3
	movs	r0, #0
.Ltmp47:
	.loc	2 132 15 is_stmt 1      @ crypto_service.c:132:15
	str	r0, [sp, #48]
	.loc	2 133 6                 @ crypto_service.c:133:6
	b	.LBB6_6
.LBB6_4:
	.loc	2 0 6 is_stmt 0         @ crypto_service.c:0:6
	movs	r0, #1
	.loc	2 135 15 is_stmt 1      @ crypto_service.c:135:15
	str	r0, [sp, #48]
	.loc	2 136 6                 @ crypto_service.c:136:6
	b	.LBB6_6
.LBB6_5:
	.loc	2 0 6 is_stmt 0         @ crypto_service.c:0:6
	movs	r0, #2
	.loc	2 138 15 is_stmt 1      @ crypto_service.c:138:15
	str	r0, [sp, #48]
	.loc	2 139 6                 @ crypto_service.c:139:6
	b	.LBB6_6
.Ltmp48:
.LBB6_6:
	.loc	2 142 23                @ crypto_service.c:142:23
	ldr	r2, [sp, #88]
	.loc	2 142 45 is_stmt 0      @ crypto_service.c:142:45
	ldr	r0, [sp, #48]
	.loc	2 142 3                 @ crypto_service.c:142:3
	mov	r1, sp
	movs	r3, #3
	str	r3, [r1, #4]
	str	r0, [r1]
	ldr	r0, __arm_cp.6_1
	movs	r1, #0
	str	r0, [sp, #16]           @ 4-byte Spill
	str	r1, [sp, #12]           @ 4-byte Spill
	ldr	r3, [sp, #12]           @ 4-byte Reload
	bl	XAES_Open
	.loc	2 143 41 is_stmt 1      @ crypto_service.c:143:41
	ldr	r3, [sp, #48]
	.loc	2 143 3 is_stmt 0       @ crypto_service.c:143:3
	ldr	r2, __arm_cp.6_2
	ldr	r0, [sp, #16]           @ 4-byte Reload
	ldr	r1, [sp, #12]           @ 4-byte Reload
	bl	XAES_SetKey
	.loc	2 144 5 is_stmt 1       @ crypto_service.c:144:5
	ldr	r2, __arm_cp.6_3
	ldr	r0, [sp, #16]           @ 4-byte Reload
	ldr	r1, [sp, #12]           @ 4-byte Reload
	bl	XAES_SetInitVect
	.loc	2 145 45                @ crypto_service.c:145:45
	ldr	r2, [sp, #64]
	.loc	2 145 62 is_stmt 0      @ crypto_service.c:145:62
	ldr	r3, [sp, #60]
	.loc	2 145 70                @ crypto_service.c:145:70
	ldr	r0, [sp, #56]
	.loc	2 145 5                 @ crypto_service.c:145:5
	mov	r1, sp
	str	r0, [r1]
	ldr	r0, [sp, #16]           @ 4-byte Reload
	ldr	r1, [sp, #12]           @ 4-byte Reload
	bl	XAES_SetDMATransfer
	.loc	2 147 21 is_stmt 1      @ crypto_service.c:147:21
	ldr	r0, __arm_cp.6_4
	ldr	r1, [sp, #12]           @ 4-byte Reload
	str	r1, [r0]
	movs	r2, #5
	.loc	2 148 5                 @ crypto_service.c:148:5
	ldr	r0, [sp, #16]           @ 4-byte Reload
	bl	XAES_Start
	.loc	2 149 5                 @ crypto_service.c:149:5
	b	.LBB6_7
.LBB6_7:                                @ =>This Inner Loop Header: Depth=1
	.loc	2 149 11 is_stmt 0      @ crypto_service.c:149:11
	ldr	r0, __arm_cp.6_4
	ldr	r0, [r0]
	.loc	2 149 5                 @ crypto_service.c:149:5
	cmp	r0, #0
	bne	.LBB6_9
	b	.LBB6_8
.LBB6_8:                                @   in Loop: Header=BB6_7 Depth=1
	b	.LBB6_7
.LBB6_9:
	.loc	2 150 1 is_stmt 1       @ crypto_service.c:150:1
	add	sp, #68
	pop	{r4, r5, r6, r7, pc}
.Ltmp49:
	.p2align	2
@ %bb.10:
	.loc	2 0 1 is_stmt 0         @ crypto_service.c:0:1
__arm_cp.6_0:
	.long	1073946624              @ 0x40032000
.Lcpi_end7:
	.size	__arm_cp.6_0, .Lcpi_end7-__arm_cp.6_0
__arm_cp.6_1:
	.long	g_xcrpt
.Lcpi_end8:
	.size	__arm_cp.6_1, .Lcpi_end8-__arm_cp.6_1
__arm_cp.6_2:
	.long	g_au32MyAESKey
.Lcpi_end9:
	.size	__arm_cp.6_2, .Lcpi_end9-__arm_cp.6_2
__arm_cp.6_3:
	.long	g_au32MyAESIV
.Lcpi_end10:
	.size	__arm_cp.6_3, .Lcpi_end10-__arm_cp.6_3
__arm_cp.6_4:
	.long	g_u32IsAES_done
.Lcpi_end11:
	.size	__arm_cp.6_4, .Lcpi_end11-__arm_cp.6_4
.Lfunc_end6:
	.size	crypto_symmetric, .Lfunc_end6-crypto_symmetric
	.cfi_endproc
	.cantunwind
	.fnend
                                        @ -- End function
	.section	.text.crypto_ecc_genKey,"ax",%progbits
	.hidden	crypto_ecc_genKey       @ -- Begin function crypto_ecc_genKey
	.globl	crypto_ecc_genKey
	.p2align	2
	.type	crypto_ecc_genKey,%function
	.code	16                      @ @crypto_ecc_genKey
	.thumb_func
crypto_ecc_genKey:
.Lfunc_begin7:
	.loc	2 152 0 is_stmt 1       @ crypto_service.c:152:0
	.fnstart
	.cfi_startproc
@ %bb.0:
	.save	{r4, r5, r6, r7, lr}
	push	{r4, r5, r6, r7, lr}
	.cfi_def_cfa_offset 20
	.cfi_offset lr, -4
	.cfi_offset r7, -8
	.cfi_offset r6, -12
	.cfi_offset r5, -16
	.cfi_offset r4, -20
	.setfp	r7, sp, #12
	add	r7, sp, #12
	.cfi_def_cfa r7, 8
	.pad	#156
	sub	sp, #156
	mov	r6, sp
	adds	r4, r6, #7
	adds	r4, #105
	ldr	r5, [r7, #8]
	str	r0, [r6, #48]           @ 4-byte Spill
	mov	r0, r3
	str	r0, [r6, #44]           @ 4-byte Spill
	mov	r0, r2
	str	r0, [r6, #40]           @ 4-byte Spill
	mov	r0, r1
	str	r0, [r6, #36]           @ 4-byte Spill
	ldr	r0, [r6, #48]           @ 4-byte Reload
	str	r0, [r6, #32]           @ 4-byte Spill
	ldr	r0, [r6, #48]           @ 4-byte Reload
	str	r0, [r4, #40]
	str	r1, [r4, #36]
	str	r2, [r4, #32]
	str	r3, [r4, #28]
.Ltmp50:
	.loc	2 153 3 prologue_end    @ crypto_service.c:153:3
	str	r4, [r6, #28]           @ 4-byte Spill
	str	r5, [r6, #24]           @ 4-byte Spill
	bl	hw_acc_disable
	.loc	2 158 16                @ crypto_service.c:158:16
	ldr	r0, [r7, #8]
	.loc	2 158 21 is_stmt 0      @ crypto_service.c:158:21
	asrs	r1, r0, #31
	lsrs	r1, r1, #29
	adds	r0, r0, r1
	asrs	r0, r0, #3
	.loc	2 158 3                 @ crypto_service.c:158:3
	mov	r1, sp
	ldr	r2, [r6, #28]           @ 4-byte Reload
	str	r1, [r2, #8]
	adds	r1, r0, #7
	movs	r3, #7
	bics	r1, r3
	mov	r3, sp
	subs	r1, r3, r1
.Ltmp51:
	@DEBUG_VALUE: crypto_ecc_genKey:au8r <- [$r1+0]
	mov	sp, r1
	str	r0, [r2, #4]
	.loc	2 159 22 is_stmt 1      @ crypto_service.c:159:22
	ldr	r0, [r7, #8]
	.loc	2 159 11 is_stmt 0      @ crypto_service.c:159:11
	str	r0, [r2]
	ldr	r0, __arm_cp.7_0
	.loc	2 162 3 is_stmt 1       @ crypto_service.c:162:3
	ldr	r3, [r0]
	movs	r4, #3
	lsls	r4, r4, #22
	orrs	r3, r4
	str	r3, [r0]
	adds	r0, r6, #7
	adds	r0, #45
	movs	r3, #0
	.loc	2 163 3                 @ crypto_service.c:163:3
	str	r0, [r6, #20]           @ 4-byte Spill
	str	r1, [r6, #16]           @ 4-byte Spill
.Ltmp52:
	@DEBUG_VALUE: crypto_ecc_genKey:au8r <- [DW_OP_plus_uconst 16, DW_OP_deref] [$r6+0]
	mov	r1, r3
	str	r3, [r6, #12]           @ 4-byte Spill
	bl	XTRNG_RandomInit
	.loc	2 165 28                @ crypto_service.c:165:28
	ldr	r1, [r6, #28]           @ 4-byte Reload
	ldr	r2, [r1]
	.loc	2 165 37 is_stmt 0      @ crypto_service.c:165:37
	asrs	r3, r2, #31
	lsrs	r3, r3, #29
	adds	r2, r2, r3
	asrs	r2, r2, #3
	.loc	2 165 3                 @ crypto_service.c:165:3
	ldr	r3, [r6, #20]           @ 4-byte Reload
	str	r0, [r6, #8]            @ 4-byte Spill
	mov	r0, r3
	ldr	r1, [r6, #16]           @ 4-byte Reload
	bl	XTRNG_Random
.Ltmp53:
	.loc	2 167 10 is_stmt 1      @ crypto_service.c:167:10
	ldr	r1, [r6, #12]           @ 4-byte Reload
	ldr	r2, [r6, #28]           @ 4-byte Reload
	str	r1, [r2, #20]
	.loc	2 167 17 is_stmt 0      @ crypto_service.c:167:17
	str	r1, [r2, #16]
	.loc	2 167 8                 @ crypto_service.c:167:8
	str	r0, [r6, #4]            @ 4-byte Spill
	b	.LBB7_1
.Ltmp54:
.LBB7_1:                                @ =>This Inner Loop Header: Depth=1
	@DEBUG_VALUE: crypto_ecc_genKey:au8r <- [DW_OP_plus_uconst 16, DW_OP_deref] [$r6+0]
	.loc	2 167 22                @ crypto_service.c:167:22
	ldr	r0, [r6, #28]           @ 4-byte Reload
	ldr	r1, [r0, #20]
	.loc	2 167 26                @ crypto_service.c:167:26
	ldr	r2, [r0]
	.loc	2 167 35                @ crypto_service.c:167:35
	asrs	r3, r2, #31
	lsrs	r3, r3, #29
	adds	r2, r2, r3
	asrs	r2, r2, #3
.Ltmp55:
	.loc	2 167 3                 @ crypto_service.c:167:3
	cmp	r1, r2
	bge	.LBB7_4
	b	.LBB7_2
.Ltmp56:
.LBB7_2:                                @   in Loop: Header=BB7_1 Depth=1
	@DEBUG_VALUE: crypto_ecc_genKey:au8r <- [DW_OP_plus_uconst 16, DW_OP_deref] [$r6+0]
	.loc	2 168 32 is_stmt 1      @ crypto_service.c:168:32
	ldr	r0, [r6, #28]           @ 4-byte Reload
	ldr	r1, [r0, #20]
	.loc	2 168 27 is_stmt 0      @ crypto_service.c:168:27
	ldr	r2, [r6, #16]           @ 4-byte Reload
	ldrb	r1, [r2, r1]
	movs	r3, #15
	.loc	2 168 35                @ crypto_service.c:168:35
	ands	r1, r3
	.loc	2 168 17                @ crypto_service.c:168:17
	mov	r0, r1
	bl	Byte2Char
	.loc	2 168 5                 @ crypto_service.c:168:5
	ldr	r1, [r6, #28]           @ 4-byte Reload
	ldr	r2, [r1, #40]
	.loc	2 168 11                @ crypto_service.c:168:11
	ldr	r3, [r1, #16]
	adds	r4, r3, #1
	str	r4, [r1, #16]
	.loc	2 168 15                @ crypto_service.c:168:15
	strb	r0, [r2, r3]
	.loc	2 169 32 is_stmt 1      @ crypto_service.c:169:32
	ldr	r0, [r1, #20]
	.loc	2 169 27 is_stmt 0      @ crypto_service.c:169:27
	ldr	r2, [r6, #16]           @ 4-byte Reload
	ldrb	r0, [r2, r0]
	.loc	2 169 35                @ crypto_service.c:169:35
	lsrs	r0, r0, #4
	.loc	2 169 17                @ crypto_service.c:169:17
	bl	Byte2Char
	.loc	2 169 5                 @ crypto_service.c:169:5
	ldr	r1, [r6, #28]           @ 4-byte Reload
	ldr	r2, [r1, #40]
	.loc	2 169 11                @ crypto_service.c:169:11
	ldr	r3, [r1, #16]
	adds	r4, r3, #1
	str	r4, [r1, #16]
	.loc	2 169 15                @ crypto_service.c:169:15
	strb	r0, [r2, r3]
	.loc	2 170 3 is_stmt 1       @ crypto_service.c:170:3
	b	.LBB7_3
.Ltmp57:
.LBB7_3:                                @   in Loop: Header=BB7_1 Depth=1
	@DEBUG_VALUE: crypto_ecc_genKey:au8r <- [DW_OP_plus_uconst 16, DW_OP_deref] [$r6+0]
	.loc	2 167 41                @ crypto_service.c:167:41
	ldr	r0, [r6, #28]           @ 4-byte Reload
	ldr	r1, [r0, #20]
	adds	r1, r1, #1
	str	r1, [r0, #20]
	.loc	2 167 3 is_stmt 0       @ crypto_service.c:167:3
	b	.LBB7_1
.Ltmp58:
.LBB7_4:
	@DEBUG_VALUE: crypto_ecc_genKey:au8r <- [DW_OP_plus_uconst 16, DW_OP_deref] [$r6+0]
	.loc	2 171 3 is_stmt 1       @ crypto_service.c:171:3
	ldr	r0, [r6, #28]           @ 4-byte Reload
	ldr	r1, [r0, #40]
	.loc	2 171 8 is_stmt 0       @ crypto_service.c:171:8
	ldr	r2, [r0, #16]
	movs	r3, #0
	.loc	2 171 11                @ crypto_service.c:171:11
	strb	r3, [r1, r2]
	.loc	2 173 11 is_stmt 1      @ crypto_service.c:173:11
	ldr	r1, [r0, #28]
	ldr	r2, __arm_cp.7_1
	.loc	2 173 3 is_stmt 0       @ crypto_service.c:173:3
	adds	r1, r1, r2
	cmp	r1, #4
	str	r1, [r6]                @ 4-byte Spill
	bhi	.LBB7_12
.Ltmp59:
@ %bb.5:
	@DEBUG_VALUE: crypto_ecc_genKey:au8r <- [DW_OP_plus_uconst 16, DW_OP_deref] [$r6+0]
	.loc	2 0 3                   @ crypto_service.c:0:3
	ldr	r0, [r6]                @ 4-byte Reload
	lsls	r1, r0, #2
	adr	r2, .LJTI7_0
	adds	r1, r2, r1
	mov	pc, r1
.Ltmp60:
@ %bb.6:
	.p2align	2
.LJTI7_0:
	b.w	.LBB7_7
	b.w	.LBB7_8
	b.w	.LBB7_9
	b.w	.LBB7_10
	b.w	.LBB7_11
.LBB7_7:
.Ltmp61:
	@DEBUG_VALUE: crypto_ecc_genKey:au8r <- [DW_OP_plus_uconst 16, DW_OP_deref] [$r6+0]
	movs	r0, #0
.Ltmp62:
	.loc	2 175 12 is_stmt 1      @ crypto_service.c:175:12
	ldr	r1, [r6, #28]           @ 4-byte Reload
	str	r0, [r1, #12]
	.loc	2 176 6                 @ crypto_service.c:176:6
	b	.LBB7_12
.Ltmp63:
.LBB7_8:
	@DEBUG_VALUE: crypto_ecc_genKey:au8r <- [DW_OP_plus_uconst 16, DW_OP_deref] [$r6+0]
	.loc	2 0 6 is_stmt 0         @ crypto_service.c:0:6
	movs	r0, #1
	.loc	2 178 12 is_stmt 1      @ crypto_service.c:178:12
	ldr	r1, [r6, #28]           @ 4-byte Reload
	str	r0, [r1, #12]
	.loc	2 179 6                 @ crypto_service.c:179:6
	b	.LBB7_12
.Ltmp64:
.LBB7_9:
	@DEBUG_VALUE: crypto_ecc_genKey:au8r <- [DW_OP_plus_uconst 16, DW_OP_deref] [$r6+0]
	.loc	2 0 6 is_stmt 0         @ crypto_service.c:0:6
	movs	r0, #2
	.loc	2 181 12 is_stmt 1      @ crypto_service.c:181:12
	ldr	r1, [r6, #28]           @ 4-byte Reload
	str	r0, [r1, #12]
	.loc	2 182 6                 @ crypto_service.c:182:6
	b	.LBB7_12
.Ltmp65:
.LBB7_10:
	@DEBUG_VALUE: crypto_ecc_genKey:au8r <- [DW_OP_plus_uconst 16, DW_OP_deref] [$r6+0]
	.loc	2 0 6 is_stmt 0         @ crypto_service.c:0:6
	movs	r0, #3
	.loc	2 184 12 is_stmt 1      @ crypto_service.c:184:12
	ldr	r1, [r6, #28]           @ 4-byte Reload
	str	r0, [r1, #12]
	.loc	2 185 6                 @ crypto_service.c:185:6
	b	.LBB7_12
.Ltmp66:
.LBB7_11:
	@DEBUG_VALUE: crypto_ecc_genKey:au8r <- [DW_OP_plus_uconst 16, DW_OP_deref] [$r6+0]
	.loc	2 0 6 is_stmt 0         @ crypto_service.c:0:6
	movs	r0, #4
	.loc	2 187 12 is_stmt 1      @ crypto_service.c:187:12
	ldr	r1, [r6, #28]           @ 4-byte Reload
	str	r0, [r1, #12]
	.loc	2 188 6                 @ crypto_service.c:188:6
	b	.LBB7_12
.Ltmp67:
.LBB7_12:
	@DEBUG_VALUE: crypto_ecc_genKey:au8r <- [DW_OP_plus_uconst 16, DW_OP_deref] [$r6+0]
	.loc	2 191 37                @ crypto_service.c:191:37
	ldr	r0, [r6, #28]           @ 4-byte Reload
	ldr	r1, [r0, #12]
	.loc	2 191 44 is_stmt 0      @ crypto_service.c:191:44
	ldr	r2, [r0, #40]
	.loc	2 191 7                 @ crypto_service.c:191:7
	ldr	r0, __arm_cp.7_2
	bl	XECC_IsPrivateKeyValid
.Ltmp68:
	.loc	2 191 7                 @ crypto_service.c:191:7
	cmp	r0, #0
	beq	.LBB7_17
	b	.LBB7_13
.Ltmp69:
.LBB7_13:
	@DEBUG_VALUE: crypto_ecc_genKey:au8r <- [DW_OP_plus_uconst 16, DW_OP_deref] [$r6+0]
	.loc	2 192 39 is_stmt 1      @ crypto_service.c:192:39
	ldr	r0, [r6, #28]           @ 4-byte Reload
	ldr	r1, [r0, #12]
	.loc	2 192 46 is_stmt 0      @ crypto_service.c:192:46
	ldr	r2, [r0, #40]
	.loc	2 192 52                @ crypto_service.c:192:52
	ldr	r3, [r0, #36]
	.loc	2 192 60                @ crypto_service.c:192:60
	ldr	r4, [r0, #32]
	.loc	2 192 9                 @ crypto_service.c:192:9
	sub	sp, #8
	mov	r5, sp
	str	r4, [r5]
	ldr	r0, __arm_cp.7_2
	bl	XECC_GeneratePublicKey
	add	sp, #8
.Ltmp70:
	.loc	2 192 9                 @ crypto_service.c:192:9
	cmp	r0, #0
	bge	.LBB7_15
	b	.LBB7_14
.Ltmp71:
.LBB7_14:
	@DEBUG_VALUE: crypto_ecc_genKey:au8r <- [DW_OP_plus_uconst 16, DW_OP_deref] [$r6+0]
	.loc	2 0 9                   @ crypto_service.c:0:9
	movs	r0, #1
	mvns	r0, r0
.Ltmp72:
	.loc	2 193 11 is_stmt 1      @ crypto_service.c:193:11
	ldr	r1, [r6, #28]           @ 4-byte Reload
	str	r0, [r1, #24]
	.loc	2 194 5                 @ crypto_service.c:194:5
	b	.LBB7_16
.Ltmp73:
.LBB7_15:
	@DEBUG_VALUE: crypto_ecc_genKey:au8r <- [DW_OP_plus_uconst 16, DW_OP_deref] [$r6+0]
	.loc	2 0 5 is_stmt 0         @ crypto_service.c:0:5
	movs	r0, #0
.Ltmp74:
	.loc	2 196 11 is_stmt 1      @ crypto_service.c:196:11
	ldr	r1, [r6, #28]           @ 4-byte Reload
	str	r0, [r1, #24]
	b	.LBB7_16
.Ltmp75:
.LBB7_16:
	@DEBUG_VALUE: crypto_ecc_genKey:au8r <- [DW_OP_plus_uconst 16, DW_OP_deref] [$r6+0]
	.loc	2 0 11 is_stmt 0        @ crypto_service.c:0:11
	movs	r0, #0
	.loc	2 198 9 is_stmt 1       @ crypto_service.c:198:9
	ldr	r1, [r6, #28]           @ 4-byte Reload
	str	r0, [r1, #24]
	.loc	2 199 3                 @ crypto_service.c:199:3
	b	.LBB7_18
.Ltmp76:
.LBB7_17:
	@DEBUG_VALUE: crypto_ecc_genKey:au8r <- [DW_OP_plus_uconst 16, DW_OP_deref] [$r6+0]
	.loc	2 0 3 is_stmt 0         @ crypto_service.c:0:3
	movs	r0, #0
	mvns	r0, r0
.Ltmp77:
	.loc	2 201 9 is_stmt 1       @ crypto_service.c:201:9
	ldr	r1, [r6, #28]           @ 4-byte Reload
	str	r0, [r1, #24]
	b	.LBB7_18
.Ltmp78:
.LBB7_18:
	@DEBUG_VALUE: crypto_ecc_genKey:au8r <- [DW_OP_plus_uconst 16, DW_OP_deref] [$r6+0]
	.loc	2 204 10                @ crypto_service.c:204:10
	ldr	r0, [r6, #28]           @ 4-byte Reload
	ldr	r0, [r0, #24]
	.loc	2 205 1                 @ crypto_service.c:205:1
	ldr	r1, [r6, #28]           @ 4-byte Reload
	ldr	r2, [r1, #8]
	mov	sp, r2
	subs	r4, r7, #7
	subs	r4, #5
	mov	sp, r4
	pop	{r4, r5, r6, r7, pc}
.Ltmp79:
	.p2align	2
@ %bb.19:
	.loc	2 0 1 is_stmt 0         @ crypto_service.c:0:1
__arm_cp.7_0:
	.long	1073946624              @ 0x40032000
.Lcpi_end12:
	.size	__arm_cp.7_0, .Lcpi_end12-__arm_cp.7_0
__arm_cp.7_1:
	.long	4294966996              @ 0xfffffed4
.Lcpi_end13:
	.size	__arm_cp.7_1, .Lcpi_end13-__arm_cp.7_1
__arm_cp.7_2:
	.long	g_xcrpt
.Lcpi_end14:
	.size	__arm_cp.7_2, .Lcpi_end14-__arm_cp.7_2
.Lfunc_end7:
	.size	crypto_ecc_genKey, .Lfunc_end7-crypto_ecc_genKey
	.cfi_endproc
	.cantunwind
	.fnend
                                        @ -- End function
	.section	.text.crypto_ecc_init,"ax",%progbits
	.hidden	crypto_ecc_init         @ -- Begin function crypto_ecc_init
	.globl	crypto_ecc_init
	.p2align	2
	.type	crypto_ecc_init,%function
	.code	16                      @ @crypto_ecc_init
	.thumb_func
crypto_ecc_init:
.Lfunc_begin8:
	.loc	2 210 0 is_stmt 1       @ crypto_service.c:210:0
	.fnstart
	.cfi_startproc
@ %bb.0:
	.save	{r7, lr}
	push	{r7, lr}
	.cfi_def_cfa_offset 8
	.cfi_offset lr, -4
	.cfi_offset r7, -8
	.pad	#24
	sub	sp, #24
	.cfi_def_cfa_offset 32
	mov	r2, r1
	mov	r3, r0
	str	r0, [sp, #20]
	str	r1, [sp, #16]
.Ltmp80:
	.loc	2 211 19 prologue_end   @ crypto_service.c:211:19
	ldr	r1, [sp, #20]
	.loc	2 211 3 is_stmt 0       @ crypto_service.c:211:3
	ldr	r0, __arm_cp.8_0
	str	r2, [sp, #12]           @ 4-byte Spill
	str	r3, [sp, #8]            @ 4-byte Spill
	bl	strcpy
	.loc	2 212 19 is_stmt 1      @ crypto_service.c:212:19
	ldr	r1, [sp, #16]
	.loc	2 212 17 is_stmt 0      @ crypto_service.c:212:17
	ldr	r2, __arm_cp.8_1
	str	r1, [r2]
	.loc	2 213 1 is_stmt 1       @ crypto_service.c:213:1
	str	r0, [sp, #4]            @ 4-byte Spill
	add	sp, #24
	pop	{r7, pc}
.Ltmp81:
	.p2align	2
@ %bb.1:
	.loc	2 0 1 is_stmt 0         @ crypto_service.c:0:1
__arm_cp.8_0:
	.long	ecc_msg
.Lcpi_end15:
	.size	__arm_cp.8_0, .Lcpi_end15-__arm_cp.8_0
__arm_cp.8_1:
	.long	ecc_algorithm
.Lcpi_end16:
	.size	__arm_cp.8_1, .Lcpi_end16-__arm_cp.8_1
.Lfunc_end8:
	.size	crypto_ecc_init, .Lfunc_end8-crypto_ecc_init
	.cfi_endproc
	.cantunwind
	.fnend
                                        @ -- End function
	.section	.text.crypto_ecc_sign,"ax",%progbits
	.hidden	crypto_ecc_sign         @ -- Begin function crypto_ecc_sign
	.globl	crypto_ecc_sign
	.p2align	2
	.type	crypto_ecc_sign,%function
	.code	16                      @ @crypto_ecc_sign
	.thumb_func
crypto_ecc_sign:
.Lfunc_begin9:
	.loc	2 215 0 is_stmt 1       @ crypto_service.c:215:0
	.fnstart
	.cfi_startproc
@ %bb.0:
	.save	{r4, r5, r6, r7, lr}
	push	{r4, r5, r6, r7, lr}
	.cfi_def_cfa_offset 20
	.cfi_offset lr, -4
	.cfi_offset r7, -8
	.cfi_offset r6, -12
	.cfi_offset r5, -16
	.cfi_offset r4, -20
	.setfp	r7, sp, #12
	add	r7, sp, #12
	.cfi_def_cfa r7, 8
	.pad	#156
	sub	sp, #156
	mov	r6, sp
	adds	r4, r6, #7
	adds	r4, #101
	mov	r5, r3
	str	r0, [r6, #44]           @ 4-byte Spill
	mov	r0, r2
	str	r0, [r6, #40]           @ 4-byte Spill
	mov	r0, r1
	str	r0, [r6, #36]           @ 4-byte Spill
	ldr	r0, [r6, #44]           @ 4-byte Reload
	str	r0, [r6, #32]           @ 4-byte Spill
	ldr	r0, [r6, #44]           @ 4-byte Reload
	str	r0, [r4, #44]
	str	r1, [r4, #40]
	str	r2, [r4, #36]
	str	r3, [r4, #32]
.Ltmp82:
	.loc	2 216 3 prologue_end    @ crypto_service.c:216:3
	str	r4, [r6, #28]           @ 4-byte Spill
	str	r5, [r6, #24]           @ 4-byte Spill
	bl	hw_acc_disable
	.loc	2 218 24                @ crypto_service.c:218:24
	ldr	r0, __arm_cp.9_0
	ldr	r0, [r0]
	.loc	2 218 14 is_stmt 0      @ crypto_service.c:218:14
	bl	calc_size
	.loc	2 218 7                 @ crypto_service.c:218:7
	ldr	r1, [r6, #28]           @ 4-byte Reload
	str	r0, [r1, #28]
	.loc	2 222 16 is_stmt 1      @ crypto_service.c:222:16
	ldr	r0, [r1, #28]
	.loc	2 222 21 is_stmt 0      @ crypto_service.c:222:21
	asrs	r2, r0, #31
	lsrs	r2, r2, #29
	adds	r0, r0, r2
	asrs	r0, r0, #3
	.loc	2 222 3                 @ crypto_service.c:222:3
	mov	r2, sp
	str	r2, [r1, #8]
	adds	r2, r0, #7
	movs	r3, #7
	bics	r2, r3
	mov	r3, sp
	subs	r2, r3, r2
.Ltmp83:
	@DEBUG_VALUE: crypto_ecc_sign:au8r <- [$r2+0]
	mov	sp, r2
	str	r0, [r1, #4]
	.loc	2 223 22 is_stmt 1      @ crypto_service.c:223:22
	ldr	r0, [r1, #28]
	.loc	2 223 11 is_stmt 0      @ crypto_service.c:223:11
	str	r0, [r1]
	ldr	r0, __arm_cp.9_1
	.loc	2 226 3 is_stmt 1       @ crypto_service.c:226:3
	ldr	r3, [r0]
	movs	r4, #3
	lsls	r4, r4, #22
	orrs	r3, r4
	str	r3, [r0]
	adds	r0, r6, #7
	adds	r0, #41
	movs	r3, #0
	.loc	2 228 3                 @ crypto_service.c:228:3
	str	r0, [r6, #20]           @ 4-byte Spill
	mov	r1, r3
	str	r2, [r6, #16]           @ 4-byte Spill
.Ltmp84:
	@DEBUG_VALUE: crypto_ecc_sign:au8r <- [DW_OP_plus_uconst 16, DW_OP_deref] [$r6+0]
	str	r3, [r6, #12]           @ 4-byte Spill
	bl	XTRNG_RandomInit
	.loc	2 230 28                @ crypto_service.c:230:28
	ldr	r1, [r6, #28]           @ 4-byte Reload
	ldr	r2, [r1]
	.loc	2 230 37 is_stmt 0      @ crypto_service.c:230:37
	asrs	r3, r2, #31
	lsrs	r3, r3, #29
	adds	r2, r2, r3
	asrs	r2, r2, #3
	.loc	2 230 3                 @ crypto_service.c:230:3
	ldr	r3, [r6, #20]           @ 4-byte Reload
	str	r0, [r6, #8]            @ 4-byte Spill
	mov	r0, r3
	ldr	r1, [r6, #16]           @ 4-byte Reload
	bl	XTRNG_Random
.Ltmp85:
	.loc	2 232 10 is_stmt 1      @ crypto_service.c:232:10
	ldr	r1, [r6, #12]           @ 4-byte Reload
	ldr	r2, [r6, #28]           @ 4-byte Reload
	str	r1, [r2, #20]
	.loc	2 232 17 is_stmt 0      @ crypto_service.c:232:17
	str	r1, [r2, #16]
	.loc	2 232 8                 @ crypto_service.c:232:8
	str	r0, [r6, #4]            @ 4-byte Spill
	b	.LBB9_1
.Ltmp86:
.LBB9_1:                                @ =>This Inner Loop Header: Depth=1
	@DEBUG_VALUE: crypto_ecc_sign:au8r <- [DW_OP_plus_uconst 16, DW_OP_deref] [$r6+0]
	.loc	2 232 22                @ crypto_service.c:232:22
	ldr	r0, [r6, #28]           @ 4-byte Reload
	ldr	r1, [r0, #20]
	.loc	2 232 26                @ crypto_service.c:232:26
	ldr	r2, [r0]
	.loc	2 232 35                @ crypto_service.c:232:35
	asrs	r3, r2, #31
	lsrs	r3, r3, #29
	adds	r2, r2, r3
	asrs	r2, r2, #3
.Ltmp87:
	.loc	2 232 3                 @ crypto_service.c:232:3
	cmp	r1, r2
	bge	.LBB9_4
	b	.LBB9_2
.Ltmp88:
.LBB9_2:                                @   in Loop: Header=BB9_1 Depth=1
	@DEBUG_VALUE: crypto_ecc_sign:au8r <- [DW_OP_plus_uconst 16, DW_OP_deref] [$r6+0]
	.loc	2 233 32 is_stmt 1      @ crypto_service.c:233:32
	ldr	r0, [r6, #28]           @ 4-byte Reload
	ldr	r1, [r0, #20]
	.loc	2 233 27 is_stmt 0      @ crypto_service.c:233:27
	ldr	r2, [r6, #16]           @ 4-byte Reload
	ldrb	r1, [r2, r1]
	movs	r3, #15
	.loc	2 233 35                @ crypto_service.c:233:35
	ands	r1, r3
	.loc	2 233 17                @ crypto_service.c:233:17
	mov	r0, r1
	bl	Byte2Char
	.loc	2 233 5                 @ crypto_service.c:233:5
	ldr	r1, [r6, #28]           @ 4-byte Reload
	ldr	r2, [r1, #40]
	.loc	2 233 11                @ crypto_service.c:233:11
	ldr	r3, [r1, #16]
	adds	r4, r3, #1
	str	r4, [r1, #16]
	.loc	2 233 15                @ crypto_service.c:233:15
	strb	r0, [r2, r3]
	.loc	2 234 32 is_stmt 1      @ crypto_service.c:234:32
	ldr	r0, [r1, #20]
	.loc	2 234 27 is_stmt 0      @ crypto_service.c:234:27
	ldr	r2, [r6, #16]           @ 4-byte Reload
	ldrb	r0, [r2, r0]
	.loc	2 234 35                @ crypto_service.c:234:35
	lsrs	r0, r0, #4
	.loc	2 234 17                @ crypto_service.c:234:17
	bl	Byte2Char
	.loc	2 234 5                 @ crypto_service.c:234:5
	ldr	r1, [r6, #28]           @ 4-byte Reload
	ldr	r2, [r1, #40]
	.loc	2 234 11                @ crypto_service.c:234:11
	ldr	r3, [r1, #16]
	adds	r4, r3, #1
	str	r4, [r1, #16]
	.loc	2 234 15                @ crypto_service.c:234:15
	strb	r0, [r2, r3]
	.loc	2 235 3 is_stmt 1       @ crypto_service.c:235:3
	b	.LBB9_3
.Ltmp89:
.LBB9_3:                                @   in Loop: Header=BB9_1 Depth=1
	@DEBUG_VALUE: crypto_ecc_sign:au8r <- [DW_OP_plus_uconst 16, DW_OP_deref] [$r6+0]
	.loc	2 232 41                @ crypto_service.c:232:41
	ldr	r0, [r6, #28]           @ 4-byte Reload
	ldr	r1, [r0, #20]
	adds	r1, r1, #1
	str	r1, [r0, #20]
	.loc	2 232 3 is_stmt 0       @ crypto_service.c:232:3
	b	.LBB9_1
.Ltmp90:
.LBB9_4:
	@DEBUG_VALUE: crypto_ecc_sign:au8r <- [DW_OP_plus_uconst 16, DW_OP_deref] [$r6+0]
	.loc	2 236 3 is_stmt 1       @ crypto_service.c:236:3
	ldr	r0, [r6, #28]           @ 4-byte Reload
	ldr	r1, [r0, #40]
	.loc	2 236 8 is_stmt 0       @ crypto_service.c:236:8
	ldr	r2, [r0, #16]
	movs	r3, #0
	.loc	2 236 11                @ crypto_service.c:236:11
	strb	r3, [r1, r2]
	.loc	2 238 11 is_stmt 1      @ crypto_service.c:238:11
	ldr	r1, __arm_cp.9_0
	ldr	r1, [r1]
	ldr	r2, __arm_cp.9_2
	.loc	2 238 3 is_stmt 0       @ crypto_service.c:238:3
	adds	r1, r1, r2
	cmp	r1, #4
	str	r1, [r6]                @ 4-byte Spill
	bhi	.LBB9_12
.Ltmp91:
@ %bb.5:
	@DEBUG_VALUE: crypto_ecc_sign:au8r <- [DW_OP_plus_uconst 16, DW_OP_deref] [$r6+0]
	.loc	2 0 3                   @ crypto_service.c:0:3
	ldr	r0, [r6]                @ 4-byte Reload
	lsls	r1, r0, #2
	adr	r2, .LJTI9_0
	adds	r1, r2, r1
	mov	pc, r1
.Ltmp92:
@ %bb.6:
	.p2align	2
.LJTI9_0:
	b.w	.LBB9_7
	b.w	.LBB9_8
	b.w	.LBB9_9
	b.w	.LBB9_10
	b.w	.LBB9_11
.LBB9_7:
.Ltmp93:
	@DEBUG_VALUE: crypto_ecc_sign:au8r <- [DW_OP_plus_uconst 16, DW_OP_deref] [$r6+0]
	movs	r0, #0
.Ltmp94:
	.loc	2 240 12 is_stmt 1      @ crypto_service.c:240:12
	ldr	r1, [r6, #28]           @ 4-byte Reload
	str	r0, [r1, #12]
	.loc	2 241 6                 @ crypto_service.c:241:6
	b	.LBB9_12
.Ltmp95:
.LBB9_8:
	@DEBUG_VALUE: crypto_ecc_sign:au8r <- [DW_OP_plus_uconst 16, DW_OP_deref] [$r6+0]
	.loc	2 0 6 is_stmt 0         @ crypto_service.c:0:6
	movs	r0, #1
	.loc	2 243 12 is_stmt 1      @ crypto_service.c:243:12
	ldr	r1, [r6, #28]           @ 4-byte Reload
	str	r0, [r1, #12]
	.loc	2 244 6                 @ crypto_service.c:244:6
	b	.LBB9_12
.Ltmp96:
.LBB9_9:
	@DEBUG_VALUE: crypto_ecc_sign:au8r <- [DW_OP_plus_uconst 16, DW_OP_deref] [$r6+0]
	.loc	2 0 6 is_stmt 0         @ crypto_service.c:0:6
	movs	r0, #2
	.loc	2 246 12 is_stmt 1      @ crypto_service.c:246:12
	ldr	r1, [r6, #28]           @ 4-byte Reload
	str	r0, [r1, #12]
	.loc	2 247 6                 @ crypto_service.c:247:6
	b	.LBB9_12
.Ltmp97:
.LBB9_10:
	@DEBUG_VALUE: crypto_ecc_sign:au8r <- [DW_OP_plus_uconst 16, DW_OP_deref] [$r6+0]
	.loc	2 0 6 is_stmt 0         @ crypto_service.c:0:6
	movs	r0, #3
	.loc	2 249 12 is_stmt 1      @ crypto_service.c:249:12
	ldr	r1, [r6, #28]           @ 4-byte Reload
	str	r0, [r1, #12]
	.loc	2 250 6                 @ crypto_service.c:250:6
	b	.LBB9_12
.Ltmp98:
.LBB9_11:
	@DEBUG_VALUE: crypto_ecc_sign:au8r <- [DW_OP_plus_uconst 16, DW_OP_deref] [$r6+0]
	.loc	2 0 6 is_stmt 0         @ crypto_service.c:0:6
	movs	r0, #4
	.loc	2 252 12 is_stmt 1      @ crypto_service.c:252:12
	ldr	r1, [r6, #28]           @ 4-byte Reload
	str	r0, [r1, #12]
	.loc	2 253 6                 @ crypto_service.c:253:6
	b	.LBB9_12
.Ltmp99:
.LBB9_12:
	@DEBUG_VALUE: crypto_ecc_sign:au8r <- [DW_OP_plus_uconst 16, DW_OP_deref] [$r6+0]
	.loc	2 256 37                @ crypto_service.c:256:37
	ldr	r0, [r6, #28]           @ 4-byte Reload
	ldr	r1, [r0, #12]
	.loc	2 256 53 is_stmt 0      @ crypto_service.c:256:53
	ldr	r3, [r0, #44]
	.loc	2 256 59                @ crypto_service.c:256:59
	ldr	r2, [r0, #40]
	.loc	2 256 65                @ crypto_service.c:256:65
	ldr	r4, [r0, #36]
	.loc	2 256 73                @ crypto_service.c:256:73
	ldr	r5, [r0, #32]
	.loc	2 256 7                 @ crypto_service.c:256:7
	sub	sp, #16
	mov	r0, sp
	str	r5, [r0, #8]
	str	r4, [r0, #4]
	str	r2, [r0]
	ldr	r0, __arm_cp.9_3
	ldr	r2, __arm_cp.9_4
	bl	XECC_GenerateSignature
	add	sp, #16
.Ltmp100:
	.loc	2 256 7                 @ crypto_service.c:256:7
	cmp	r0, #0
	bge	.LBB9_14
	b	.LBB9_13
.Ltmp101:
.LBB9_13:
	@DEBUG_VALUE: crypto_ecc_sign:au8r <- [DW_OP_plus_uconst 16, DW_OP_deref] [$r6+0]
	.loc	2 0 7                   @ crypto_service.c:0:7
	movs	r0, #2
	mvns	r0, r0
.Ltmp102:
	.loc	2 257 9 is_stmt 1       @ crypto_service.c:257:9
	ldr	r1, [r6, #28]           @ 4-byte Reload
	str	r0, [r1, #24]
	.loc	2 258 3                 @ crypto_service.c:258:3
	b	.LBB9_15
.Ltmp103:
.LBB9_14:
	@DEBUG_VALUE: crypto_ecc_sign:au8r <- [DW_OP_plus_uconst 16, DW_OP_deref] [$r6+0]
	.loc	2 0 3 is_stmt 0         @ crypto_service.c:0:3
	movs	r0, #1
.Ltmp104:
	.loc	2 260 9 is_stmt 1       @ crypto_service.c:260:9
	ldr	r1, [r6, #28]           @ 4-byte Reload
	str	r0, [r1, #24]
	b	.LBB9_15
.Ltmp105:
.LBB9_15:
	@DEBUG_VALUE: crypto_ecc_sign:au8r <- [DW_OP_plus_uconst 16, DW_OP_deref] [$r6+0]
	.loc	2 263 10                @ crypto_service.c:263:10
	ldr	r0, [r6, #28]           @ 4-byte Reload
	ldr	r0, [r0, #24]
	.loc	2 264 1                 @ crypto_service.c:264:1
	ldr	r1, [r6, #28]           @ 4-byte Reload
	ldr	r2, [r1, #8]
	mov	sp, r2
	subs	r4, r7, #7
	subs	r4, #5
	mov	sp, r4
	pop	{r4, r5, r6, r7, pc}
.Ltmp106:
	.p2align	2
@ %bb.16:
	.loc	2 0 1 is_stmt 0         @ crypto_service.c:0:1
__arm_cp.9_0:
	.long	ecc_algorithm
.Lcpi_end17:
	.size	__arm_cp.9_0, .Lcpi_end17-__arm_cp.9_0
__arm_cp.9_1:
	.long	1073946624              @ 0x40032000
.Lcpi_end18:
	.size	__arm_cp.9_1, .Lcpi_end18-__arm_cp.9_1
__arm_cp.9_2:
	.long	4294966996              @ 0xfffffed4
.Lcpi_end19:
	.size	__arm_cp.9_2, .Lcpi_end19-__arm_cp.9_2
__arm_cp.9_3:
	.long	g_xcrpt
.Lcpi_end20:
	.size	__arm_cp.9_3, .Lcpi_end20-__arm_cp.9_3
__arm_cp.9_4:
	.long	ecc_msg
.Lcpi_end21:
	.size	__arm_cp.9_4, .Lcpi_end21-__arm_cp.9_4
.Lfunc_end9:
	.size	crypto_ecc_sign, .Lfunc_end9-crypto_ecc_sign
	.cfi_endproc
	.cantunwind
	.fnend
                                        @ -- End function
	.section	.text.crypto_ecc_verify,"ax",%progbits
	.hidden	crypto_ecc_verify       @ -- Begin function crypto_ecc_verify
	.globl	crypto_ecc_verify
	.p2align	2
	.type	crypto_ecc_verify,%function
	.code	16                      @ @crypto_ecc_verify
	.thumb_func
crypto_ecc_verify:
.Lfunc_begin10:
	.loc	2 266 0 is_stmt 1       @ crypto_service.c:266:0
	.fnstart
	.cfi_startproc
@ %bb.0:
	.save	{r4, r5, r6, r7, lr}
	push	{r4, r5, r6, r7, lr}
	.cfi_def_cfa_offset 20
	.cfi_offset lr, -4
	.cfi_offset r7, -8
	.cfi_offset r6, -12
	.cfi_offset r5, -16
	.cfi_offset r4, -20
	.pad	#60
	sub	sp, #60
	.cfi_def_cfa_offset 80
	mov	r4, r3
	mov	r5, r2
	mov	r6, r1
	mov	r7, r0
	str	r0, [sp, #56]
	str	r1, [sp, #52]
	str	r2, [sp, #48]
	str	r3, [sp, #44]
.Ltmp107:
	.loc	2 267 3 prologue_end    @ crypto_service.c:267:3
	str	r4, [sp, #32]           @ 4-byte Spill
	str	r5, [sp, #28]           @ 4-byte Spill
	str	r6, [sp, #24]           @ 4-byte Spill
	str	r7, [sp, #20]           @ 4-byte Spill
	bl	hw_acc_disable
	ldr	r0, __arm_cp.10_0
	.loc	2 271 3                 @ crypto_service.c:271:3
	ldr	r1, [r0]
	movs	r2, #3
	lsls	r2, r2, #22
	orrs	r1, r2
	str	r1, [r0]
	.loc	2 273 11                @ crypto_service.c:273:11
	ldr	r0, __arm_cp.10_1
	ldr	r0, [r0]
	ldr	r1, __arm_cp.10_2
	.loc	2 273 3 is_stmt 0       @ crypto_service.c:273:3
	adds	r0, r0, r1
	cmp	r0, #4
	str	r0, [sp, #16]           @ 4-byte Spill
	bhi	.LBB10_8
@ %bb.1:
	.loc	2 0 3                   @ crypto_service.c:0:3
	ldr	r0, [sp, #16]           @ 4-byte Reload
	lsls	r1, r0, #2
	adr	r2, .LJTI10_0
	adds	r1, r2, r1
	mov	pc, r1
@ %bb.2:
	.p2align	2
.LJTI10_0:
	b.w	.LBB10_3
	b.w	.LBB10_4
	b.w	.LBB10_5
	b.w	.LBB10_6
	b.w	.LBB10_7
.LBB10_3:
	movs	r0, #0
.Ltmp108:
	.loc	2 275 12 is_stmt 1      @ crypto_service.c:275:12
	str	r0, [sp, #36]
	.loc	2 276 6                 @ crypto_service.c:276:6
	b	.LBB10_8
.LBB10_4:
	.loc	2 0 6 is_stmt 0         @ crypto_service.c:0:6
	movs	r0, #1
	.loc	2 278 12 is_stmt 1      @ crypto_service.c:278:12
	str	r0, [sp, #36]
	.loc	2 279 6                 @ crypto_service.c:279:6
	b	.LBB10_8
.LBB10_5:
	.loc	2 0 6 is_stmt 0         @ crypto_service.c:0:6
	movs	r0, #2
	.loc	2 281 12 is_stmt 1      @ crypto_service.c:281:12
	str	r0, [sp, #36]
	.loc	2 282 6                 @ crypto_service.c:282:6
	b	.LBB10_8
.LBB10_6:
	.loc	2 0 6 is_stmt 0         @ crypto_service.c:0:6
	movs	r0, #3
	.loc	2 284 12 is_stmt 1      @ crypto_service.c:284:12
	str	r0, [sp, #36]
	.loc	2 285 6                 @ crypto_service.c:285:6
	b	.LBB10_8
.LBB10_7:
	.loc	2 0 6 is_stmt 0         @ crypto_service.c:0:6
	movs	r0, #4
	.loc	2 287 12 is_stmt 1      @ crypto_service.c:287:12
	str	r0, [sp, #36]
	.loc	2 288 6                 @ crypto_service.c:288:6
	b	.LBB10_8
.Ltmp109:
.LBB10_8:
	.loc	2 291 35                @ crypto_service.c:291:35
	ldr	r1, [sp, #36]
	.loc	2 291 51 is_stmt 0      @ crypto_service.c:291:51
	ldr	r3, [sp, #56]
	.loc	2 291 59                @ crypto_service.c:291:59
	ldr	r0, [sp, #52]
	.loc	2 291 67                @ crypto_service.c:291:67
	ldr	r2, [sp, #48]
	.loc	2 291 75                @ crypto_service.c:291:75
	ldr	r4, [sp, #44]
	.loc	2 291 7                 @ crypto_service.c:291:7
	mov	r5, sp
	str	r4, [r5, #8]
	str	r2, [r5, #4]
	str	r0, [r5]
	ldr	r0, __arm_cp.10_3
	ldr	r2, __arm_cp.10_4
	bl	XECC_VerifySignature
.Ltmp110:
	.loc	2 291 7                 @ crypto_service.c:291:7
	cmp	r0, #0
	bge	.LBB10_10
	b	.LBB10_9
.LBB10_9:
	.loc	2 0 7                   @ crypto_service.c:0:7
	movs	r0, #3
	mvns	r0, r0
.Ltmp111:
	.loc	2 292 9 is_stmt 1       @ crypto_service.c:292:9
	str	r0, [sp, #40]
	.loc	2 293 3                 @ crypto_service.c:293:3
	b	.LBB10_11
.Ltmp112:
.LBB10_10:
	.loc	2 0 3 is_stmt 0         @ crypto_service.c:0:3
	movs	r0, #2
.Ltmp113:
	.loc	2 295 9 is_stmt 1       @ crypto_service.c:295:9
	str	r0, [sp, #40]
	b	.LBB10_11
.Ltmp114:
.LBB10_11:
	.loc	2 298 10                @ crypto_service.c:298:10
	ldr	r0, [sp, #40]
	.loc	2 298 3 is_stmt 0       @ crypto_service.c:298:3
	add	sp, #60
	pop	{r4, r5, r6, r7, pc}
.Ltmp115:
	.p2align	2
@ %bb.12:
	.loc	2 0 3                   @ crypto_service.c:0:3
__arm_cp.10_0:
	.long	1073946624              @ 0x40032000
.Lcpi_end22:
	.size	__arm_cp.10_0, .Lcpi_end22-__arm_cp.10_0
__arm_cp.10_1:
	.long	ecc_algorithm
.Lcpi_end23:
	.size	__arm_cp.10_1, .Lcpi_end23-__arm_cp.10_1
__arm_cp.10_2:
	.long	4294966996              @ 0xfffffed4
.Lcpi_end24:
	.size	__arm_cp.10_2, .Lcpi_end24-__arm_cp.10_2
__arm_cp.10_3:
	.long	g_xcrpt
.Lcpi_end25:
	.size	__arm_cp.10_3, .Lcpi_end25-__arm_cp.10_3
__arm_cp.10_4:
	.long	ecc_msg
.Lcpi_end26:
	.size	__arm_cp.10_4, .Lcpi_end26-__arm_cp.10_4
.Lfunc_end10:
	.size	crypto_ecc_verify, .Lfunc_end10-crypto_ecc_verify
	.cfi_endproc
	.cantunwind
	.fnend
                                        @ -- End function
	.hidden	g_u32IsSHA_done         @ @g_u32IsSHA_done
	.type	g_u32IsSHA_done,%object
	.section	.bss.g_u32IsSHA_done,"aw",%nobits
	.globl	g_u32IsSHA_done
	.p2align	2
g_u32IsSHA_done:
	.long	0                       @ 0x0
	.size	g_u32IsSHA_done, 4

	.hidden	g_u32IsAES_done         @ @g_u32IsAES_done
	.type	g_u32IsAES_done,%object
	.section	.bss.g_u32IsAES_done,"aw",%nobits
	.globl	g_u32IsAES_done
	.p2align	2
g_u32IsAES_done:
	.long	0                       @ 0x0
	.size	g_u32IsAES_done, 4

	.hidden	g_au32MyAESKey          @ @g_au32MyAESKey
	.type	g_au32MyAESKey,%object
	.section	.data.g_au32MyAESKey,"aw",%progbits
	.globl	g_au32MyAESKey
	.p2align	2
g_au32MyAESKey:
	.long	66051                   @ 0x10203
	.long	67438087                @ 0x4050607
	.long	134810123               @ 0x8090a0b
	.long	202182159               @ 0xc0d0e0f
	.long	66051                   @ 0x10203
	.long	67438087                @ 0x4050607
	.long	134810123               @ 0x8090a0b
	.long	202182159               @ 0xc0d0e0f
	.size	g_au32MyAESKey, 32

	.hidden	g_au32MyAESIV           @ @g_au32MyAESIV
	.type	g_au32MyAESIV,%object
	.section	.bss.g_au32MyAESIV,"aw",%nobits
	.globl	g_au32MyAESIV
	.p2align	2
g_au32MyAESIV:
	.zero	16
	.size	g_au32MyAESIV, 16

	.hidden	ecc_algorithm           @ @ecc_algorithm
	.type	ecc_algorithm,%object
	.section	.bss.ecc_algorithm,"aw",%nobits
	.globl	ecc_algorithm
	.p2align	2
ecc_algorithm:
	.long	0                       @ 0x0
	.size	ecc_algorithm, 4

	.hidden	ecc_msg                 @ @ecc_msg
	.type	ecc_msg,%object
	.section	.bss.ecc_msg,"aw",%nobits
	.globl	ecc_msg
ecc_msg:
	.zero	1
	.size	ecc_msg, 1

	.file	7 "E:\\KHU-TEE\\\354\236\245\353\271\204\\Nuvoton\\sample\\M2351BSP-master\\SampleCode\\TrustZone\\KHU-TEE2\\Secure\\KEIL" "../../../../../Library/StdDriver/inc\\mkromlib.h"
	.section	".note.GNU-stack","",%progbits
	.eabi_attribute	30, 6	@ Tag_ABI_optimization_goals
	.ARM_attribute	16, 1	@ Tag_AV_eba