	.text
	.syntax unified
	.eabi_attribute	67, "2.09"	@ Tag_conformance
	.cpu	cortex-m23
	.eabi_attribute	6, 16	@ Tag_CPU_arch
	.eabi_attribute	7, 77	@ Tag_CPU_arch_profile
	.eabi_attribute	8, 0	@ Tag_ARM_ISA_use
	.eabi_attribute	9, 3	@ Tag_THUMB_ISA_use
	.eabi_attribute	34, 0	@ Tag_CPU_unaligned_access
	.eabi_attribute	17, 1	@ Tag_ABI_PCS_GOT_use
	.eabi_attribute	20, 2	@ Tag_ABI_FP_denormal
	.eabi_attribute	21, 0	@ Tag_ABI_FP_exceptions
	.eabi_attribute	23, 1	@ Tag_ABI_FP_number_model
	.eabi_attribute	24, 1	@ Tag_ABI_align_needed
	.eabi_attribute	25, 1	@ Tag_ABI_align_preserved
	.eabi_attribute	38, 1	@ Tag_ABI_FP_16bit_format
	.eabi_attribute	18, 4	@ Tag_ABI_PCS_wchar_t
	.eabi_attribute	26, 2	@ Tag_ABI_enum_size
	.eabi_attribute	14, 0	@ Tag_ABI_PCS_R9_use
	.file	"system_M2351.c"
	.file	1 "C:\\Keil_v5\\ARM\\ARMCLANG\\Bin\\..\\include" "stdint.h"
	.file	2 "E:\\KHU-TEE\\\354\236\245\353\271\204\\Nuvoton\\sample\\M2351BSP-master\\SampleCode\\TrustZone\\KHU-TEE2\\Secure\\KEIL" "../../../../../Library/Device/Nuvoton/M2351/Source/system_M2351.c"
	.file	3 "E:\\KHU-TEE\\\354\236\245\353\271\204\\Nuvoton\\sample\\M2351BSP-master\\SampleCode\\TrustZone\\KHU-TEE2\\Secure\\KEIL" "../../../../../Library/CMSIS/Include\\core_armv8mbl.h"
	.file	4 "E:\\KHU-TEE\\\354\236\245\353\271\204\\Nuvoton\\sample\\M2351BSP-master\\SampleCode\\TrustZone\\KHU-TEE2\\Secure\\KEIL" "../../../../../Library/Device/Nuvoton/M2351/Include/scu_reg.h"
	.file	5 "E:\\KHU-TEE\\\354\236\245\353\271\204\\Nuvoton\\sample\\M2351BSP-master\\SampleCode\\TrustZone\\KHU-TEE2\\Secure\\KEIL" "../../../../../Library/Device/Nuvoton/M2351/Include/fmc_reg.h"
	.file	6 "E:\\KHU-TEE\\\354\236\245\353\271\204\\Nuvoton\\sample\\M2351BSP-master\\SampleCode\\TrustZone\\KHU-TEE2\\Secure\\KEIL" "../../../../../Library/Device/Nuvoton/M2351/Include/sys_reg.h"
	.section	.text.SystemCoreClockUpdate,"ax",%progbits
	.hidden	SystemCoreClockUpdate   @ -- Begin function SystemCoreClockUpdate
	.globl	SystemCoreClockUpdate
	.p2align	2
	.type	SystemCoreClockUpdate,%function
	.code	16                      @ @SystemCoreClockUpdate
	.thumb_func
SystemCoreClockUpdate:
.Lfunc_begin0:
	.loc	2 45 0                  @ ../../../../../Library/Device/Nuvoton/M2351/Source/system_M2351.c:45:0
	.fnstart
	.cfi_sections .debug_frame
	.cfi_startproc
@ %bb.0:
	.save	{r7, lr}
	push	{r7, lr}
	.cfi_def_cfa_offset 8
	.cfi_offset lr, -4
	.cfi_offset r7, -8
.Ltmp0:
	.loc	2 47 16 prologue_end    @ ../../../../../Library/Device/Nuvoton/M2351/Source/system_M2351.c:47:16
	bl	CLK_GetPLLClockFreq
	.loc	2 47 14 is_stmt 0       @ ../../../../../Library/Device/Nuvoton/M2351/Source/system_M2351.c:47:14
	ldr	r1, __arm_cp.0_0
	str	r0, [r1]
	.loc	2 50 23 is_stmt 1       @ ../../../../../Library/Device/Nuvoton/M2351/Source/system_M2351.c:50:23
	bl	CLK_GetCPUFreq
	.loc	2 50 21 is_stmt 0       @ ../../../../../Library/Device/Nuvoton/M2351/Source/system_M2351.c:50:21
	ldr	r1, __arm_cp.0_1
	str	r0, [r1]
	.loc	2 53 20 is_stmt 1       @ ../../../../../Library/Device/Nuvoton/M2351/Source/system_M2351.c:53:20
	ldr	r0, [r1]
	ldr	r1, __arm_cp.0_2
	.loc	2 53 36 is_stmt 0       @ ../../../../../Library/Device/Nuvoton/M2351/Source/system_M2351.c:53:36
	adds	r0, r0, r1
	ldr	r1, __arm_cp.0_3
	.loc	2 53 48                 @ ../../../../../Library/Device/Nuvoton/M2351/Source/system_M2351.c:53:48
	udiv	r0, r0, r1
	.loc	2 53 17                 @ ../../../../../Library/Device/Nuvoton/M2351/Source/system_M2351.c:53:17
	ldr	r1, __arm_cp.0_4
	str	r0, [r1]
	.loc	2 54 1 is_stmt 1        @ ../../../../../Library/Device/Nuvoton/M2351/Source/system_M2351.c:54:1
	pop	{r7, pc}
.Ltmp1:
	.p2align	2
@ %bb.1:
	.loc	2 0 1 is_stmt 0         @ ../../../../../Library/Device/Nuvoton/M2351/Source/system_M2351.c:0:1
__arm_cp.0_0:
	.long	PllClock
.Lcpi_end0:
	.size	__arm_cp.0_0, .Lcpi_end0-__arm_cp.0_0
__arm_cp.0_1:
	.long	SystemCoreClock
.Lcpi_end1:
	.size	__arm_cp.0_1, .Lcpi_end1-__arm_cp.0_1
__arm_cp.0_2:
	.long	500000                  @ 0x7a120
.Lcpi_end2:
	.size	__arm_cp.0_2, .Lcpi_end2-__arm_cp.0_2
__arm_cp.0_3:
	.long	1000000                 @ 0xf4240
.Lcpi_end3:
	.size	__arm_cp.0_3, .Lcpi_end3-__arm_cp.0_3
__arm_cp.0_4:
	.long	CyclesPerUs
.Lcpi_end4:
	.size	__arm_cp.0_4, .Lcpi_end4-__arm_cp.0_4
.Lfunc_end0:
	.size	SystemCoreClockUpdate, .Lfunc_end0-SystemCoreClockUpdate
	.cfi_endproc
	.cantunwind
	.fnend
                                        @ -- End function
	.section	.text.SystemInit,"ax",%progbits
	.hidden	SystemInit              @ -- Begin function SystemInit
	.globl	SystemInit
	.p2align	2
	.type	SystemInit,%function
	.code	16                      @ @SystemInit
	.thumb_func
SystemInit:
.Lfunc_begin1:
	.loc	2 68 0 is_stmt 1        @ ../../../../../Library/Device/Nuvoton/M2351/Source/system_M2351.c:68:0
	.fnstart
	.cfi_startproc
@ %bb.0:
	.save	{r7, lr}
	push	{r7, lr}
	.cfi_def_cfa_offset 8
	.cfi_offset lr, -4
	.cfi_offset r7, -8
.Ltmp2:
	.loc	2 70 15 prologue_end    @ ../../../../../Library/Device/Nuvoton/M2351/Source/system_M2351.c:70:15
	ldr	r0, __arm_cp.1_0
	ldr	r1, __arm_cp.1_1
	str	r0, [r1]
	.loc	2 74 5                  @ ../../../../../Library/Device/Nuvoton/M2351/Source/system_M2351.c:74:5
	bl	TZ_SAU_Setup
	.loc	2 75 5                  @ ../../../../../Library/Device/Nuvoton/M2351/Source/system_M2351.c:75:5
	bl	SCU_Setup
	.loc	2 76 5                  @ ../../../../../Library/Device/Nuvoton/M2351/Source/system_M2351.c:76:5
	bl	FMC_NSBA_Setup
	.loc	2 83 1                  @ ../../../../../Library/Device/Nuvoton/M2351/Source/system_M2351.c:83:1
	pop	{r7, pc}
.Ltmp3:
	.p2align	2
@ %bb.1:
	.loc	2 0 1 is_stmt 0         @ ../../../../../Library/Device/Nuvoton/M2351/Source/system_M2351.c:0:1
__arm_cp.1_0:
	.long	__Vectors
.Lcpi_end5:
	.size	__arm_cp.1_0, .Lcpi_end5-__arm_cp.1_0
__arm_cp.1_1:
	.long	3758157064              @ 0xe000ed08
.Lcpi_end6:
	.size	__arm_cp.1_1, .Lcpi_end6-__arm_cp.1_1
.Lfunc_end1:
	.size	SystemInit, .Lfunc_end1-SystemInit
	.cfi_endproc
	.cantunwind
	.fnend
                                        @ -- End function
	.section	.text.TZ_SAU_Setup,"ax",%progbits
	.p2align	2               @ -- Begin function TZ_SAU_Setup
	.type	TZ_SAU_Setup,%function
	.code	16                      @ @TZ_SAU_Setup
	.thumb_func
TZ_SAU_Setup:
.Lfunc_begin2:
	.file	7 "E:\\KHU-TEE\\\354\236\245\353\271\204\\Nuvoton\\sample\\M2351BSP-master\\SampleCode\\TrustZone\\KHU-TEE2\\Secure\\KEIL" "../../Secure\\partition_M2351.h"
	.loc	7 725 0 is_stmt 1       @ ../../Secure\partition_M2351.h:725:0
	.fnstart
	.cfi_startproc
@ %bb.0:
	.save	{r4, lr}
	push	{r4, lr}
	.cfi_def_cfa_offset 8
	.cfi_offset lr, -4
	.cfi_offset r4, -8
	ldr	r0, __arm_cp.2_0
	movs	r1, #3
.Ltmp4:
	.loc	7 742 5 prologue_end    @ ../../Secure\partition_M2351.h:742:5
	str	r1, [r0]
	movs	r1, #63
	lsls	r1, r1, #12
	ldr	r2, __arm_cp.2_1
	str	r1, [r2]
	ldr	r1, __arm_cp.2_2
	ldr	r3, __arm_cp.2_3
	str	r3, [r1]
	movs	r3, #4
	.loc	7 746 5                 @ ../../Secure\partition_M2351.h:746:5
	str	r3, [r0]
	ldr	r3, __arm_cp.2_4
	str	r3, [r2]
	ldr	r3, __arm_cp.2_5
	str	r3, [r1]
	movs	r3, #5
	.loc	7 750 5                 @ ../../Secure\partition_M2351.h:750:5
	str	r3, [r0]
	ldr	r4, __arm_cp.2_6
	str	r4, [r2]
	ldr	r4, __arm_cp.2_7
	str	r4, [r1]
	movs	r4, #6
	.loc	7 754 5                 @ ../../Secure\partition_M2351.h:754:5
	str	r4, [r0]
	ldr	r4, __arm_cp.2_8
	str	r4, [r2]
	ldr	r4, __arm_cp.2_9
	str	r4, [r1]
	movs	r4, #7
	.loc	7 758 5                 @ ../../Secure\partition_M2351.h:758:5
	str	r4, [r0]
	lsls	r0, r3, #28
	str	r0, [r2]
	ldr	r0, __arm_cp.2_10
	str	r0, [r1]
	ldr	r0, __arm_cp.2_11
	movs	r1, #1
	.loc	7 765 15                @ ../../Secure\partition_M2351.h:765:15
	str	r1, [r0]
	ldr	r0, __arm_cp.2_12
	.loc	7 772 24                @ ../../Secure\partition_M2351.h:772:24
	ldr	r1, [r0]
	movs	r2, #8
	.loc	7 772 30 is_stmt 0      @ ../../Secure\partition_M2351.h:772:30
	bics	r1, r2
	.loc	7 772 16                @ ../../Secure\partition_M2351.h:772:16
	str	r1, [r0]
	ldr	r0, __arm_cp.2_13
	ldr	r1, __arm_cp.2_14
	.loc	7 780 16 is_stmt 1      @ ../../Secure\partition_M2351.h:780:16
	str	r1, [r0]
	ldr	r0, __arm_cp.2_15
	movs	r1, #0
	.loc	7 795 19                @ ../../Secure\partition_M2351.h:795:19
	str	r1, [r0]
	ldr	r0, __arm_cp.2_16
	.loc	7 799 19                @ ../../Secure\partition_M2351.h:799:19
	str	r1, [r0]
	ldr	r0, __arm_cp.2_17
	.loc	7 803 19                @ ../../Secure\partition_M2351.h:803:19
	str	r1, [r0]
	ldr	r0, __arm_cp.2_18
	.loc	7 807 19                @ ../../Secure\partition_M2351.h:807:19
	str	r1, [r0]
	.loc	7 813 1                 @ ../../Secure\partition_M2351.h:813:1
	pop	{r4, pc}
.Ltmp5:
	.p2align	2
@ %bb.1:
	.loc	7 0 1 is_stmt 0         @ ../../Secure\partition_M2351.h:0:1
__arm_cp.2_0:
	.long	3758157272              @ 0xe000edd8
.Lcpi_end7:
	.size	__arm_cp.2_0, .Lcpi_end7-__arm_cp.2_0
__arm_cp.2_1:
	.long	3758157276              @ 0xe000eddc
.Lcpi_end8:
	.size	__arm_cp.2_1, .Lcpi_end8-__arm_cp.2_1
__arm_cp.2_2:
	.long	3758157280              @ 0xe000ede0
.Lcpi_end9:
	.size	__arm_cp.2_2, .Lcpi_end9-__arm_cp.2_2
__arm_cp.2_3:
	.long	262115                  @ 0x3ffe3
.Lcpi_end10:
	.size	__arm_cp.2_3, .Lcpi_end10-__arm_cp.2_3
__arm_cp.2_4:
	.long	268697600               @ 0x10040000
.Lcpi_end11:
	.size	__arm_cp.2_4, .Lcpi_end11-__arm_cp.2_4
__arm_cp.2_5:
	.long	268959713               @ 0x1007ffe1
.Lcpi_end12:
	.size	__arm_cp.2_5, .Lcpi_end12-__arm_cp.2_5
__arm_cp.2_6:
	.long	8420864                 @ 0x807e00
.Lcpi_end13:
	.size	__arm_cp.2_6, .Lcpi_end13-__arm_cp.2_6
__arm_cp.2_7:
	.long	8421347                 @ 0x807fe3
.Lcpi_end14:
	.size	__arm_cp.2_7, .Lcpi_end14-__arm_cp.2_7
__arm_cp.2_8:
	.long	805371904               @ 0x30010000
.Lcpi_end15:
	.size	__arm_cp.2_8, .Lcpi_end15-__arm_cp.2_8
__arm_cp.2_9:
	.long	805404641               @ 0x30017fe1
.Lcpi_end16:
	.size	__arm_cp.2_9, .Lcpi_end16-__arm_cp.2_9
__arm_cp.2_10:
	.long	1610612705              @ 0x5fffffe1
.Lcpi_end17:
	.size	__arm_cp.2_10, .Lcpi_end17-__arm_cp.2_10
__arm_cp.2_11:
	.long	3758157264              @ 0xe000edd0
.Lcpi_end18:
	.size	__arm_cp.2_11, .Lcpi_end18-__arm_cp.2_11
__arm_cp.2_12:
	.long	3758157072              @ 0xe000ed10
.Lcpi_end19:
	.size	__arm_cp.2_12, .Lcpi_end19-__arm_cp.2_12
__arm_cp.2_13:
	.long	3758157068              @ 0xe000ed0c
.Lcpi_end20:
	.size	__arm_cp.2_13, .Lcpi_end20-__arm_cp.2_13
__arm_cp.2_14:
	.long	100270080               @ 0x5fa0000
.Lcpi_end21:
	.size	__arm_cp.2_14, .Lcpi_end21-__arm_cp.2_14
__arm_cp.2_15:
	.long	3758154624              @ 0xe000e380
.Lcpi_end22:
	.size	__arm_cp.2_15, .Lcpi_end22-__arm_cp.2_15
__arm_cp.2_16:
	.long	3758154628              @ 0xe000e384
.Lcpi_end23:
	.size	__arm_cp.2_16, .Lcpi_end23-__arm_cp.2_16
__arm_cp.2_17:
	.long	3758154632              @ 0xe000e388
.Lcpi_end24:
	.size	__arm_cp.2_17, .Lcpi_end24-__arm_cp.2_17
__arm_cp.2_18:
	.long	3758154636              @ 0xe000e38c
.Lcpi_end25:
	.size	__arm_cp.2_18, .Lcpi_end25-__arm_cp.2_18
.Lfunc_end2:
	.size	TZ_SAU_Setup, .Lfunc_end2-TZ_SAU_Setup
	.cfi_endproc
	.cantunwind
	.fnend
                                        @ -- End function
	.section	.text.SCU_Setup,"ax",%progbits
	.p2align	2               @ -- Begin function SCU_Setup
	.type	SCU_Setup,%function
	.code	16                      @ @SCU_Setup
	.thumb_func
SCU_Setup:
.Lfunc_begin3:
	.loc	7 258 0 is_stmt 1       @ ../../Secure\partition_M2351.h:258:0
	.fnstart
	.cfi_startproc
@ %bb.0:
	.pad	#4
	sub	sp, #4
	.cfi_def_cfa_offset 4
	ldr	r0, __arm_cp.3_0
	movs	r1, #0
.Ltmp6:
	.loc	7 261 20 prologue_end   @ ../../Secure\partition_M2351.h:261:20
	str	r1, [r0]
	ldr	r0, __arm_cp.3_1
	.loc	7 262 20                @ ../../Secure\partition_M2351.h:262:20
	str	r1, [r0]
	ldr	r0, __arm_cp.3_2
	.loc	7 263 20                @ ../../Secure\partition_M2351.h:263:20
	str	r1, [r0]
	movs	r0, #1
	lsls	r0, r0, #16
	ldr	r2, __arm_cp.3_3
	.loc	7 264 20                @ ../../Secure\partition_M2351.h:264:20
	str	r0, [r2]
	ldr	r0, __arm_cp.3_4
	.loc	7 265 20                @ ../../Secure\partition_M2351.h:265:20
	str	r1, [r0]
	ldr	r0, __arm_cp.3_5
	.loc	7 266 20                @ ../../Secure\partition_M2351.h:266:20
	str	r1, [r0]
	ldr	r0, __arm_cp.3_6
	.loc	7 267 20                @ ../../Secure\partition_M2351.h:267:20
	str	r1, [r0]
	ldr	r0, __arm_cp.3_7
	.loc	7 269 18                @ ../../Secure\partition_M2351.h:269:18
	str	r1, [r0]
	movs	r0, #11
.Ltmp7:
	.loc	7 272 11                @ ../../Secure\partition_M2351.h:272:11
	str	r0, [sp]
	.loc	7 272 9 is_stmt 0       @ ../../Secure\partition_M2351.h:272:9
	b	.LBB3_1
.LBB3_1:                                @ =>This Inner Loop Header: Depth=1
.Ltmp8:
	.loc	7 272 17                @ ../../Secure\partition_M2351.h:272:17
	ldr	r0, [sp]
.Ltmp9:
	.loc	7 272 5                 @ ../../Secure\partition_M2351.h:272:5
	cmp	r0, #8
	blt	.LBB3_4
	b	.LBB3_2
.LBB3_2:                                @   in Loop: Header=BB3_1 Depth=1
.Ltmp10:
	.loc	7 274 34 is_stmt 1      @ ../../Secure\partition_M2351.h:274:34
	ldr	r0, [sp]
	movs	r1, #1
	.loc	7 274 31 is_stmt 0      @ ../../Secure\partition_M2351.h:274:31
	lsls	r1, r0
	ldr	r0, __arm_cp.3_8
	.loc	7 274 24                @ ../../Secure\partition_M2351.h:274:24
	ldr	r2, [r0]
	orrs	r2, r1
	str	r2, [r0]
	.loc	7 275 5 is_stmt 1       @ ../../Secure\partition_M2351.h:275:5
	b	.LBB3_3
.Ltmp11:
.LBB3_3:                                @   in Loop: Header=BB3_1 Depth=1
	.loc	7 272 52                @ ../../Secure\partition_M2351.h:272:52
	ldr	r0, [sp]
	subs	r0, r0, #1
	str	r0, [sp]
	.loc	7 272 5 is_stmt 0       @ ../../Secure\partition_M2351.h:272:5
	b	.LBB3_1
.Ltmp12:
.LBB3_4:
	.loc	7 278 1 is_stmt 1       @ ../../Secure\partition_M2351.h:278:1
	add	sp, #4
	bx	lr
.Ltmp13:
	.p2align	2
@ %bb.5:
	.loc	7 0 1 is_stmt 0         @ ../../Secure\partition_M2351.h:0:1
__arm_cp.3_0:
	.long	1073934336              @ 0x4002f000
.Lcpi_end26:
	.size	__arm_cp.3_0, .Lcpi_end26-__arm_cp.3_0
__arm_cp.3_1:
	.long	1073934340              @ 0x4002f004
.Lcpi_end27:
	.size	__arm_cp.3_1, .Lcpi_end27-__arm_cp.3_1
__arm_cp.3_2:
	.long	1073934344              @ 0x4002f008
.Lcpi_end28:
	.size	__arm_cp.3_2, .Lcpi_end28-__arm_cp.3_2
__arm_cp.3_3:
	.long	1073934348              @ 0x4002f00c
.Lcpi_end29:
	.size	__arm_cp.3_3, .Lcpi_end29-__arm_cp.3_3
__arm_cp.3_4:
	.long	1073934352              @ 0x4002f010
.Lcpi_end30:
	.size	__arm_cp.3_4, .Lcpi_end30-__arm_cp.3_4
__arm_cp.3_5:
	.long	1073934356              @ 0x4002f014
.Lcpi_end31:
	.size	__arm_cp.3_5, .Lcpi_end31-__arm_cp.3_5
__arm_cp.3_6:
	.long	1073934360              @ 0x4002f018
.Lcpi_end32:
	.size	__arm_cp.3_6, .Lcpi_end32-__arm_cp.3_6
__arm_cp.3_7:
	.long	1073934368              @ 0x4002f020
.Lcpi_end33:
	.size	__arm_cp.3_7, .Lcpi_end33-__arm_cp.3_7
__arm_cp.3_8:
	.long	1073934372              @ 0x4002f024
.Lcpi_end34:
	.size	__arm_cp.3_8, .Lcpi_end34-__arm_cp.3_8
.Lfunc_end3:
	.size	SCU_Setup, .Lfunc_end3-SCU_Setup
	.cfi_endproc
	.cantunwind
	.fnend
                                        @ -- End function
	.section	.text.FMC_NSBA_Setup,"ax",%progbits
	.p2align	2               @ -- Begin function FMC_NSBA_Setup
	.type	FMC_NSBA_Setup,%function
	.code	16                      @ @FMC_NSBA_Setup
	.thumb_func
FMC_NSBA_Setup:
.Lfunc_begin4:
	.loc	7 58 0 is_stmt 1        @ ../../Secure\partition_M2351.h:58:0
	.fnstart
	.cfi_startproc
@ %bb.0:
	.save	{r7, lr}
	push	{r7, lr}
	.cfi_def_cfa_offset 8
	.cfi_offset lr, -4
	.cfi_offset r7, -8
	ldr	r0, __arm_cp.4_0
.Ltmp14:
	.loc	7 64 13 prologue_end    @ ../../Secure\partition_M2351.h:64:13
	ldr	r0, [r0]
	movs	r1, #1
	lsls	r1, r1, #18
.Ltmp15:
	.loc	7 64 8 is_stmt 0        @ ../../Secure\partition_M2351.h:64:8
	cmp	r0, r1
	beq	.LBB4_11
	b	.LBB4_1
.LBB4_1:
.Ltmp16:
	.loc	7 67 9 is_stmt 1        @ ../../Secure\partition_M2351.h:67:9
	bl	SYS_UnlockReg
	ldr	r0, __arm_cp.4_1
	movs	r1, #17
	.loc	7 70 21                 @ ../../Secure\partition_M2351.h:70:21
	str	r1, [r0]
	ldr	r0, __arm_cp.4_2
	ldr	r1, __arm_cp.4_3
	.loc	7 73 22                 @ ../../Secure\partition_M2351.h:73:22
	str	r1, [r0]
	ldr	r0, __arm_cp.4_4
	movs	r1, #0
	.loc	7 76 21                 @ ../../Secure\partition_M2351.h:76:21
	str	r1, [r0]
	ldr	r0, __arm_cp.4_5
	movs	r1, #1
	.loc	7 77 21                 @ ../../Secure\partition_M2351.h:77:21
	str	r1, [r0]
	.loc	7 78 9                  @ ../../Secure\partition_M2351.h:78:9
	b	.LBB4_2
.LBB4_2:                                @ =>This Inner Loop Header: Depth=1
	.loc	7 0 9 is_stmt 0         @ ../../Secure\partition_M2351.h:0:9
	ldr	r0, __arm_cp.4_5
	.loc	7 78 20                 @ ../../Secure\partition_M2351.h:78:20
	ldr	r0, [r0]
	.loc	7 78 9                  @ ../../Secure\partition_M2351.h:78:9
	cmp	r0, #0
	beq	.LBB4_4
	b	.LBB4_3
.LBB4_3:                                @   in Loop: Header=BB4_2 Depth=1
	b	.LBB4_2
.LBB4_4:
	.loc	7 0 9                   @ ../../Secure\partition_M2351.h:0:9
	ldr	r0, __arm_cp.4_6
.Ltmp17:
	.loc	7 81 17 is_stmt 1       @ ../../Secure\partition_M2351.h:81:17
	ldr	r0, [r0]
.Ltmp18:
	.loc	7 81 12 is_stmt 0       @ ../../Secure\partition_M2351.h:81:12
	adds	r0, r0, #1
	cmp	r0, #0
	bne	.LBB4_9
	b	.LBB4_5
.LBB4_5:
	.loc	7 0 12                  @ ../../Secure\partition_M2351.h:0:12
	movs	r0, #1
	lsls	r1, r0, #18
	ldr	r2, __arm_cp.4_6
.Ltmp19:
	.loc	7 83 25 is_stmt 1       @ ../../Secure\partition_M2351.h:83:25
	str	r1, [r2]
	ldr	r1, __arm_cp.4_4
	movs	r2, #33
	.loc	7 84 25                 @ ../../Secure\partition_M2351.h:84:25
	str	r2, [r1]
	ldr	r1, __arm_cp.4_5
	.loc	7 85 25                 @ ../../Secure\partition_M2351.h:85:25
	str	r0, [r1]
	.loc	7 86 13                 @ ../../Secure\partition_M2351.h:86:13
	b	.LBB4_6
.LBB4_6:                                @ =>This Inner Loop Header: Depth=1
	.loc	7 0 13 is_stmt 0        @ ../../Secure\partition_M2351.h:0:13
	ldr	r0, __arm_cp.4_5
	.loc	7 86 24                 @ ../../Secure\partition_M2351.h:86:24
	ldr	r0, [r0]
	.loc	7 86 13                 @ ../../Secure\partition_M2351.h:86:13
	cmp	r0, #0
	beq	.LBB4_8
	b	.LBB4_7
.LBB4_7:                                @   in Loop: Header=BB4_6 Depth=1
	b	.LBB4_6
.LBB4_8:
	.loc	7 0 13                  @ ../../Secure\partition_M2351.h:0:13
	ldr	r0, __arm_cp.4_7
	movs	r1, #1
	.loc	7 89 25 is_stmt 1       @ ../../Secure\partition_M2351.h:89:25
	str	r1, [r0]
	.loc	7 90 9                  @ ../../Secure\partition_M2351.h:90:9
	b	.LBB4_9
.Ltmp20:
.LBB4_9:
	.loc	7 99 9                  @ ../../Secure\partition_M2351.h:99:9
	b	.LBB4_10
.LBB4_10:                               @ =>This Inner Loop Header: Depth=1
	b	.LBB4_10
.Ltmp21:
.LBB4_11:
	.loc	7 102 1                 @ ../../Secure\partition_M2351.h:102:1
	pop	{r7, pc}
.Ltmp22:
	.p2align	2
@ %bb.12:
	.loc	7 0 1 is_stmt 0         @ ../../Secure\partition_M2351.h:0:1
__arm_cp.4_0:
	.long	1073934376              @ 0x4002f028
.Lcpi_end35:
	.size	__arm_cp.4_0, .Lcpi_end35-__arm_cp.4_0
__arm_cp.4_1:
	.long	1073790976              @ 0x4000c000
.Lcpi_end36:
	.size	__arm_cp.4_1, .Lcpi_end36-__arm_cp.4_1
__arm_cp.4_2:
	.long	1073790980              @ 0x4000c004
.Lcpi_end37:
	.size	__arm_cp.4_2, .Lcpi_end37-__arm_cp.4_2
__arm_cp.4_3:
	.long	2099200                 @ 0x200800
.Lcpi_end38:
	.size	__arm_cp.4_3, .Lcpi_end38-__arm_cp.4_3
__arm_cp.4_4:
	.long	1073790988              @ 0x4000c00c
.Lcpi_end39:
	.size	__arm_cp.4_4, .Lcpi_end39-__arm_cp.4_4
__arm_cp.4_5:
	.long	1073790992              @ 0x4000c010
.Lcpi_end40:
	.size	__arm_cp.4_5, .Lcpi_end40-__arm_cp.4_5
__arm_cp.4_6:
	.long	1073790984              @ 0x4000c008
.Lcpi_end41:
	.size	__arm_cp.4_6, .Lcpi_end41-__arm_cp.4_6
__arm_cp.4_7:
	.long	1073741832              @ 0x40000008
.Lcpi_end42:
	.size	__arm_cp.4_7, .Lcpi_end42-__arm_cp.4_7
.Lfunc_end4:
	.size	FMC_NSBA_Setup, .Lfunc_end4-FMC_NSBA_Setup
	.cfi_endproc
	.cantunwind
	.fnend
                                        @ -- End function
	.section	.text.SYS_UnlockReg,"ax",%progbits
	.p2align	2               @ -- Begin function SYS_UnlockReg
	.type	SYS_UnlockReg,%function
	.code	16                      @ @SYS_UnlockReg
	.thumb_func
SYS_UnlockReg:
.Lfunc_begin5:
	.file	8 "E:\\KHU-TEE\\\354\236\245\353\271\204\\Nuvoton\\sample\\M2351BSP-master\\SampleCode\\TrustZone\\KHU-TEE2\\Secure\\KEIL" "../../../../../Library/StdDriver/inc\\sys.h"
	.loc	8 3042 0 is_stmt 1      @ ../../../../../Library/StdDriver/inc\sys.h:3042:0
	.fnstart
	.cfi_startproc
@ %bb.0:
	.loc	8 3043 5 prologue_end   @ ../../../../../Library/StdDriver/inc\sys.h:3043:5
	b	.LBB5_1
.LBB5_1:                                @ =>This Inner Loop Header: Depth=1
	.loc	8 0 5 is_stmt 0         @ ../../../../../Library/StdDriver/inc\sys.h:0:5
	ldr	r0, __arm_cp.5_0
	movs	r1, #89
.Ltmp23:
	.loc	8 3045 22 is_stmt 1     @ ../../../../../Library/StdDriver/inc\sys.h:3045:22
	str	r1, [r0]
	movs	r1, #22
	.loc	8 3046 22               @ ../../../../../Library/StdDriver/inc\sys.h:3046:22
	str	r1, [r0]
	movs	r1, #136
	.loc	8 3047 22               @ ../../../../../Library/StdDriver/inc\sys.h:3047:22
	str	r1, [r0]
	.loc	8 3048 5                @ ../../../../../Library/StdDriver/inc\sys.h:3048:5
	b	.LBB5_2
.Ltmp24:
.LBB5_2:                                @   in Loop: Header=BB5_1 Depth=1
	.loc	8 0 5 is_stmt 0         @ ../../../../../Library/StdDriver/inc\sys.h:0:5
	ldr	r0, __arm_cp.5_0
	.loc	8 3049 16 is_stmt 1     @ ../../../../../Library/StdDriver/inc\sys.h:3049:16
	ldr	r0, [r0]
.Ltmp25:
	.loc	8 3048 5                @ ../../../../../Library/StdDriver/inc\sys.h:3048:5
	cmp	r0, #0
	beq	.LBB5_1
	b	.LBB5_3
.Ltmp26:
.LBB5_3:
	.loc	8 3050 1                @ ../../../../../Library/StdDriver/inc\sys.h:3050:1
	bx	lr
.Ltmp27:
	.p2align	2
@ %bb.4:
	.loc	8 0 1 is_stmt 0         @ ../../../../../Library/StdDriver/inc\sys.h:0:1
__arm_cp.5_0:
	.long	1073742080              @ 0x40000100
.Lcpi_end43:
	.size	__arm_cp.5_0, .Lcpi_end43-__arm_cp.5_0
.Lfunc_end5:
	.size	SYS_UnlockReg, .Lfunc_end5-SYS_UnlockReg
	.cfi_endproc
	.cantunwind
	.fnend
                                        @ -- End function
	.hidden	SystemCoreClock         @ @SystemCoreClock
	.type	SystemCoreClock,%object
	.section	.data.SystemCoreClock,"aw",%progbits
	.globl	SystemCoreClock
	.p2align	2
SystemCoreClock:
	.long	48000000                @ 0x2dc6c00
	.size	SystemCoreClock, 4

	.hidden	CyclesPerUs             @ @CyclesPerUs
	.type	CyclesPerUs,%object
	.section	.data.CyclesPerUs,"aw",%progbits
	.globl	CyclesPerUs
	.p2align	2
CyclesPerUs:
	.long	48                      @ 0x30
	.size	CyclesPerUs, 4

	.hidden	PllClock                @ @PllClock
	.type	PllClock,%object
	.section	.data.PllClock,"aw",%progbits
	.globl	PllClock
	.p2align	2
PllClock:
	.long	48000000                @ 0x2dc6c00
	.size	PllClock, 4

	.hidden	gau32ClkSrcTbl          @ @gau32ClkSrcTbl
	.type	gau32ClkSrcTbl,%object
	.section	.rodata.gau32ClkSrcTbl,"a",%progbits
	.globl	gau32ClkSrcTbl
	.p2align	2
gau32ClkSrcTbl:
	.long	12000000                @ 0xb71b00
	.long	32768                   @ 0x8000
	.long	0                       @ 0x0
	.long	10000                   @ 0x2710
	.long	0                       @ 0x0
	.long	48000000                @ 0x2dc6c00
	.long	0                       @ 0x0
	.long	12000000                @ 0xb71b00
	.size	gau32ClkSrcTbl, 32

	.section	".note.GNU-stack","",%progbits
	.eabi_attribute	30, 6	@ Tag_ABI_optimization_goals
	.ARM_attribute	16, 1	@ Tag_AV_eba